ccopy_reg
_reconstructor
p0
(cnetworkx.classes.graph
Graph
p1
c__builtin__
object
p2
Ntp3
Rp4
(dp5
S'node'
p6
(dp7
cnumpy.core.multiarray
scalar
p8
(cnumpy
dtype
p9
(S'S3'
p10
I0
I1
tp11
Rp12
(I3
S'|'
p13
NNNI3
I1
I0
tp14
bS'G26'
p15
tp16
Rp17
(dp18
sg8
(g9
(S'S3'
p19
I0
I1
tp20
Rp21
(I3
S'|'
p22
NNNI3
I1
I0
tp23
bS'G24'
p24
tp25
Rp26
(dp27
sg8
(g9
(S'S3'
p28
I0
I1
tp29
Rp30
(I3
S'|'
p31
NNNI3
I1
I0
tp32
bS'G20'
p33
tp34
Rp35
(dp36
sg8
(g9
(S'S3'
p37
I0
I1
tp38
Rp39
(I3
S'|'
p40
NNNI3
I1
I0
tp41
bS'G21'
p42
tp43
Rp44
(dp45
sg8
(g9
(S'S3'
p46
I0
I1
tp47
Rp48
(I3
S'|'
p49
NNNI3
I1
I0
tp50
bS'G28'
p51
tp52
Rp53
(dp54
sg8
(g9
(S'S11'
p55
I0
I1
tp56
Rp57
(I3
S'|'
p58
NNNI11
I1
I0
tp59
bS'629+B08+R11'
p60
tp61
Rp62
(dp63
sg8
(g9
(S'S11'
p64
I0
I1
tp65
Rp66
(I3
S'|'
p67
NNNI11
I1
I0
tp68
bS'635+L03+R20'
p69
tp70
Rp71
(dp72
sg8
(g9
(S'S3'
p73
I0
I1
tp74
Rp75
(I3
S'|'
p76
NNNI3
I1
I0
tp77
bS'716'
p78
tp79
Rp80
(dp81
sg8
(g9
(S'S3'
p82
I0
I1
tp83
Rp84
(I3
S'|'
p85
NNNI3
I1
I0
tp86
bS'715'
p87
tp88
Rp89
(dp90
sg8
(g9
(S'S3'
p91
I0
I1
tp92
Rp93
(I3
S'|'
p94
NNNI3
I1
I0
tp95
bS'714'
p96
tp97
Rp98
(dp99
sg8
(g9
(S'S3'
p100
I0
I1
tp101
Rp102
(I3
S'|'
p103
NNNI3
I1
I0
tp104
bS'713'
p105
tp106
Rp107
(dp108
sg8
(g9
(S'S3'
p109
I0
I1
tp110
Rp111
(I3
S'|'
p112
NNNI3
I1
I0
tp113
bS'712'
p114
tp115
Rp116
(dp117
sg8
(g9
(S'S3'
p118
I0
I1
tp119
Rp120
(I3
S'|'
p121
NNNI3
I1
I0
tp122
bS'711'
p123
tp124
Rp125
(dp126
sg8
(g9
(S'S7'
p127
I0
I1
tp128
Rp129
(I3
S'|'
p130
NNNI7
I1
I0
tp131
bS'D17+R17'
p132
tp133
Rp134
(dp135
sg8
(g9
(S'S3'
p136
I0
I1
tp137
Rp138
(I3
S'|'
p139
NNNI3
I1
I0
tp140
bS'B23'
p141
tp142
Rp143
(dp144
sg8
(g9
(S'S3'
p145
I0
I1
tp146
Rp147
(I3
S'|'
p148
NNNI3
I1
I0
tp149
bS'B22'
p150
tp151
Rp152
(dp153
sg8
(g9
(S'S3'
p154
I0
I1
tp155
Rp156
(I3
S'|'
p157
NNNI3
I1
I0
tp158
bS'B21'
p159
tp160
Rp161
(dp162
sg8
(g9
(S'S3'
p163
I0
I1
tp164
Rp165
(I3
S'|'
p166
NNNI3
I1
I0
tp167
bS'B20'
p168
tp169
Rp170
(dp171
sg8
(g9
(S'S7'
p172
I0
I1
tp173
Rp174
(I3
S'|'
p175
NNNI7
I1
I0
tp176
bS'718+R09'
p177
tp178
Rp179
(dp180
sg8
(g9
(S'S3'
p181
I0
I1
tp182
Rp183
(I3
S'|'
p184
NNNI3
I1
I0
tp185
bS'J24'
p186
tp187
Rp188
(dp189
sg8
(g9
(S'S3'
p190
I0
I1
tp191
Rp192
(I3
S'|'
p193
NNNI3
I1
I0
tp194
bS'J23'
p195
tp196
Rp197
(dp198
sg8
(g9
(S'S3'
p199
I0
I1
tp200
Rp201
(I3
S'|'
p202
NNNI3
I1
I0
tp203
bS'J22'
p204
tp205
Rp206
(dp207
sg8
(g9
(S'S3'
p208
I0
I1
tp209
Rp210
(I3
S'|'
p211
NNNI3
I1
I0
tp212
bS'J21'
p213
tp214
Rp215
(dp216
sg8
(g9
(S'S3'
p217
I0
I1
tp218
Rp219
(I3
S'|'
p220
NNNI3
I1
I0
tp221
bS'J20'
p222
tp223
Rp224
(dp225
sg8
(g9
(S'S3'
p226
I0
I1
tp227
Rp228
(I3
S'|'
p229
NNNI3
I1
I0
tp230
bS'J29'
p231
tp232
Rp233
(dp234
sg8
(g9
(S'S3'
p235
I0
I1
tp236
Rp237
(I3
S'|'
p238
NNNI3
I1
I0
tp239
bS'J28'
p240
tp241
Rp242
(dp243
sg8
(g9
(S'S3'
p244
I0
I1
tp245
Rp246
(I3
S'|'
p247
NNNI3
I1
I0
tp248
bS'F05'
p249
tp250
Rp251
(dp252
sg8
(g9
(S'S3'
p253
I0
I1
tp254
Rp255
(I3
S'|'
p256
NNNI3
I1
I0
tp257
bS'F04'
p258
tp259
Rp260
(dp261
sg8
(g9
(S'S3'
p262
I0
I1
tp263
Rp264
(I3
S'|'
p265
NNNI3
I1
I0
tp266
bS'F07'
p267
tp268
Rp269
(dp270
sg8
(g9
(S'S3'
p271
I0
I1
tp272
Rp273
(I3
S'|'
p274
NNNI3
I1
I0
tp275
bS'F06'
p276
tp277
Rp278
(dp279
sg8
(g9
(S'S3'
p280
I0
I1
tp281
Rp282
(I3
S'|'
p283
NNNI3
I1
I0
tp284
bS'F01'
p285
tp286
Rp287
(dp288
sg8
(g9
(S'S3'
p289
I0
I1
tp290
Rp291
(I3
S'|'
p292
NNNI3
I1
I0
tp293
bS'A54'
p294
tp295
Rp296
(dp297
sg8
(g9
(S'S3'
p298
I0
I1
tp299
Rp300
(I3
S'|'
p301
NNNI3
I1
I0
tp302
bS'F03'
p303
tp304
Rp305
(dp306
sg8
(g9
(S'S3'
p307
I0
I1
tp308
Rp309
(I3
S'|'
p310
NNNI3
I1
I0
tp311
bS'F02'
p312
tp313
Rp314
(dp315
sg8
(g9
(S'S3'
p316
I0
I1
tp317
Rp318
(I3
S'|'
p319
NNNI3
I1
I0
tp320
bS'A59'
p321
tp322
Rp323
(dp324
sg8
(g9
(S'S7'
p325
I0
I1
tp326
Rp327
(I3
S'|'
p328
NNNI7
I1
I0
tp329
bS'F15+M18'
p330
tp331
Rp332
(dp333
sg8
(g9
(S'S7'
p334
I0
I1
tp335
Rp336
(I3
S'|'
p337
NNNI7
I1
I0
tp338
bS'724+D16'
p339
tp340
Rp341
(dp342
sg8
(g9
(S'S7'
p343
I0
I1
tp344
Rp345
(I3
S'|'
p346
NNNI7
I1
I0
tp347
bS'A12+D13'
p348
tp349
Rp350
(dp351
sg8
(g9
(S'S3'
p352
I0
I1
tp353
Rp354
(I3
S'|'
p355
NNNI3
I1
I0
tp356
bS'N09'
p357
tp358
Rp359
(dp360
sg8
(g9
(S'S3'
p361
I0
I1
tp362
Rp363
(I3
S'|'
p364
NNNI3
I1
I0
tp365
bS'N08'
p366
tp367
Rp368
(dp369
sg8
(g9
(S'S3'
p370
I0
I1
tp371
Rp372
(I3
S'|'
p373
NNNI3
I1
I0
tp374
bS'N05'
p375
tp376
Rp377
(dp378
sg8
(g9
(S'S3'
p379
I0
I1
tp380
Rp381
(I3
S'|'
p382
NNNI3
I1
I0
tp383
bS'N07'
p384
tp385
Rp386
(dp387
sg8
(g9
(S'S3'
p388
I0
I1
tp389
Rp390
(I3
S'|'
p391
NNNI3
I1
I0
tp392
bS'N06'
p393
tp394
Rp395
(dp396
sg8
(g9
(S'S3'
p397
I0
I1
tp398
Rp399
(I3
S'|'
p400
NNNI3
I1
I0
tp401
bS'N03'
p402
tp403
Rp404
(dp405
sg8
(g9
(S'S3'
p406
I0
I1
tp407
Rp408
(I3
S'|'
p409
NNNI3
I1
I0
tp410
bS'N02'
p411
tp412
Rp413
(dp414
sg8
(g9
(S'S3'
p415
I0
I1
tp416
Rp417
(I3
S'|'
p418
NNNI3
I1
I0
tp419
bS'H10'
p420
tp421
Rp422
(dp423
sg8
(g9
(S'S3'
p424
I0
I1
tp425
Rp426
(I3
S'|'
p427
NNNI3
I1
I0
tp428
bS'H11'
p429
tp430
Rp431
(dp432
sg8
(g9
(S'S3'
p433
I0
I1
tp434
Rp435
(I3
S'|'
p436
NNNI3
I1
I0
tp437
bS'H12'
p438
tp439
Rp440
(dp441
sg8
(g9
(S'S3'
p442
I0
I1
tp443
Rp444
(I3
S'|'
p445
NNNI3
I1
I0
tp446
bS'H13'
p447
tp448
Rp449
(dp450
sg8
(g9
(S'S3'
p451
I0
I1
tp452
Rp453
(I3
S'|'
p454
NNNI3
I1
I0
tp455
bS'H14'
p456
tp457
Rp458
(dp459
sg8
(g9
(S'S3'
p460
I0
I1
tp461
Rp462
(I3
S'|'
p463
NNNI3
I1
I0
tp464
bS'H15'
p465
tp466
Rp467
(dp468
sg8
(g9
(S'S3'
p469
I0
I1
tp470
Rp471
(I3
S'|'
p472
NNNI3
I1
I0
tp473
bS'M23'
p474
tp475
Rp476
(dp477
sg8
(g9
(S'S3'
p478
I0
I1
tp479
Rp480
(I3
S'|'
p481
NNNI3
I1
I0
tp482
bS'108'
p483
tp484
Rp485
(dp486
sg8
(g9
(S'S3'
p487
I0
I1
tp488
Rp489
(I3
S'|'
p490
NNNI3
I1
I0
tp491
bS'109'
p492
tp493
Rp494
(dp495
sg8
(g9
(S'S7'
p496
I0
I1
tp497
Rp498
(I3
S'|'
p499
NNNI7
I1
I0
tp500
bS'637+D21'
p501
tp502
Rp503
(dp504
sg8
(g9
(S'S3'
p505
I0
I1
tp506
Rp507
(I3
S'|'
p508
NNNI3
I1
I0
tp509
bS'103'
p510
tp511
Rp512
(dp513
sg8
(g9
(S'S3'
p514
I0
I1
tp515
Rp516
(I3
S'|'
p517
NNNI3
I1
I0
tp518
bS'101'
p519
tp520
Rp521
(dp522
sg8
(g9
(S'S3'
p523
I0
I1
tp524
Rp525
(I3
S'|'
p526
NNNI3
I1
I0
tp527
bS'106'
p528
tp529
Rp530
(dp531
sg8
(g9
(S'S3'
p532
I0
I1
tp533
Rp534
(I3
S'|'
p535
NNNI3
I1
I0
tp536
bS'107'
p537
tp538
Rp539
(dp540
sg8
(g9
(S'S3'
p541
I0
I1
tp542
Rp543
(I3
S'|'
p544
NNNI3
I1
I0
tp545
bS'104'
p546
tp547
Rp548
(dp549
sg8
(g9
(S'S3'
p550
I0
I1
tp551
Rp552
(I3
S'|'
p553
NNNI3
I1
I0
tp554
bS'A46'
p555
tp556
Rp557
(dp558
sg8
(g9
(S'S3'
p559
I0
I1
tp560
Rp561
(I3
S'|'
p562
NNNI3
I1
I0
tp563
bS'244'
p564
tp565
Rp566
(dp567
sg8
(g9
(S'S3'
p568
I0
I1
tp569
Rp570
(I3
S'|'
p571
NNNI3
I1
I0
tp572
bS'247'
p573
tp574
Rp575
(dp576
sg8
(g9
(S'S3'
p577
I0
I1
tp578
Rp579
(I3
S'|'
p580
NNNI3
I1
I0
tp581
bS'A42'
p582
tp583
Rp584
(dp585
sg8
(g9
(S'S3'
p586
I0
I1
tp587
Rp588
(I3
S'|'
p589
NNNI3
I1
I0
tp590
bS'243'
p591
tp592
Rp593
(dp594
sg8
(g9
(S'S3'
p595
I0
I1
tp596
Rp597
(I3
S'|'
p598
NNNI3
I1
I0
tp599
bS'A41'
p600
tp601
Rp602
(dp603
sg8
(g9
(S'S3'
p604
I0
I1
tp605
Rp606
(I3
S'|'
p607
NNNI3
I1
I0
tp608
bS'249'
p609
tp610
Rp611
(dp612
sg8
(g9
(S'S3'
p613
I0
I1
tp614
Rp615
(I3
S'|'
p616
NNNI3
I1
I0
tp617
bS'F14'
p618
tp619
Rp620
(dp621
sg8
(g9
(S'S3'
p622
I0
I1
tp623
Rp624
(I3
S'|'
p625
NNNI3
I1
I0
tp626
bS'G19'
p627
tp628
Rp629
(dp630
sg8
(g9
(S'S3'
p631
I0
I1
tp632
Rp633
(I3
S'|'
p634
NNNI3
I1
I0
tp635
bS'G18'
p636
tp637
Rp638
(dp639
sg8
(g9
(S'S3'
p640
I0
I1
tp641
Rp642
(I3
S'|'
p643
NNNI3
I1
I0
tp644
bS'G16'
p645
tp646
Rp647
(dp648
sg8
(g9
(S'S3'
p649
I0
I1
tp650
Rp651
(I3
S'|'
p652
NNNI3
I1
I0
tp653
bS'G15'
p654
tp655
Rp656
(dp657
sg8
(g9
(S'S3'
p658
I0
I1
tp659
Rp660
(I3
S'|'
p661
NNNI3
I1
I0
tp662
bS'G13'
p663
tp664
Rp665
(dp666
sg8
(g9
(S'S3'
p667
I0
I1
tp668
Rp669
(I3
S'|'
p670
NNNI3
I1
I0
tp671
bS'G12'
p672
tp673
Rp674
(dp675
sg8
(g9
(S'S3'
p676
I0
I1
tp677
Rp678
(I3
S'|'
p679
NNNI3
I1
I0
tp680
bS'G11'
p681
tp682
Rp683
(dp684
sg8
(g9
(S'S3'
p685
I0
I1
tp686
Rp687
(I3
S'|'
p688
NNNI3
I1
I0
tp689
bS'G10'
p690
tp691
Rp692
(dp693
sg8
(g9
(S'S3'
p694
I0
I1
tp695
Rp696
(I3
S'|'
p697
NNNI3
I1
I0
tp698
bS'D38'
p699
tp700
Rp701
(dp702
sg8
(g9
(S'S3'
p703
I0
I1
tp704
Rp705
(I3
S'|'
p706
NNNI3
I1
I0
tp707
bS'D39'
p708
tp709
Rp710
(dp711
sg8
(g9
(S'S3'
p712
I0
I1
tp713
Rp714
(I3
S'|'
p715
NNNI3
I1
I0
tp716
bS'D37'
p717
tp718
Rp719
(dp720
sg8
(g9
(S'S3'
p721
I0
I1
tp722
Rp723
(I3
S'|'
p724
NNNI3
I1
I0
tp725
bS'D34'
p726
tp727
Rp728
(dp729
sg8
(g9
(S'S3'
p730
I0
I1
tp731
Rp732
(I3
S'|'
p733
NNNI3
I1
I0
tp734
bS'D35'
p735
tp736
Rp737
(dp738
sg8
(g9
(S'S3'
p739
I0
I1
tp740
Rp741
(I3
S'|'
p742
NNNI3
I1
I0
tp743
bS'D32'
p744
tp745
Rp746
(dp747
sg8
(g9
(S'S3'
p748
I0
I1
tp749
Rp750
(I3
S'|'
p751
NNNI3
I1
I0
tp752
bS'D33'
p753
tp754
Rp755
(dp756
sg8
(g9
(S'S3'
p757
I0
I1
tp758
Rp759
(I3
S'|'
p760
NNNI3
I1
I0
tp761
bS'D30'
p762
tp763
Rp764
(dp765
sg8
(g9
(S'S3'
p766
I0
I1
tp767
Rp768
(I3
S'|'
p769
NNNI3
I1
I0
tp770
bS'D31'
p771
tp772
Rp773
(dp774
sg8
(g9
(S'S3'
p775
I0
I1
tp776
Rp777
(I3
S'|'
p778
NNNI3
I1
I0
tp779
bS'238'
p780
tp781
Rp782
(dp783
sg8
(g9
(S'S3'
p784
I0
I1
tp785
Rp786
(I3
S'|'
p787
NNNI3
I1
I0
tp788
bS'234'
p789
tp790
Rp791
(dp792
sg8
(g9
(S'S3'
p793
I0
I1
tp794
Rp795
(I3
S'|'
p796
NNNI3
I1
I0
tp797
bS'236'
p798
tp799
Rp800
(dp801
sg8
(g9
(S'S3'
p802
I0
I1
tp803
Rp804
(I3
S'|'
p805
NNNI3
I1
I0
tp806
bS'237'
p807
tp808
Rp809
(dp810
sg8
(g9
(S'S3'
p811
I0
I1
tp812
Rp813
(I3
S'|'
p814
NNNI3
I1
I0
tp815
bS'230'
p816
tp817
Rp818
(dp819
sg8
(g9
(S'S3'
p820
I0
I1
tp821
Rp822
(I3
S'|'
p823
NNNI3
I1
I0
tp824
bS'231'
p825
tp826
Rp827
(dp828
sg8
(g9
(S'S3'
p829
I0
I1
tp830
Rp831
(I3
S'|'
p832
NNNI3
I1
I0
tp833
bS'233'
p834
tp835
Rp836
(dp837
sg8
(g9
(S'S7'
p838
I0
I1
tp839
Rp840
(I3
S'|'
p841
NNNI7
I1
I0
tp842
bS'254+L26'
p843
tp844
Rp845
(dp846
sg8
(g9
(S'S3'
p847
I0
I1
tp848
Rp849
(I3
S'|'
p850
NNNI3
I1
I0
tp851
bS'618'
p852
tp853
Rp854
(dp855
sg8
(g9
(S'S3'
p856
I0
I1
tp857
Rp858
(I3
S'|'
p859
NNNI3
I1
I0
tp860
bS'619'
p861
tp862
Rp863
(dp864
sg8
(g9
(S'S3'
p865
I0
I1
tp866
Rp867
(I3
S'|'
p868
NNNI3
I1
I0
tp869
bS'142'
p870
tp871
Rp872
(dp873
sg8
(g9
(S'S3'
p874
I0
I1
tp875
Rp876
(I3
S'|'
p877
NNNI3
I1
I0
tp878
bS'612'
p879
tp880
Rp881
(dp882
sg8
(g9
(S'S3'
p883
I0
I1
tp884
Rp885
(I3
S'|'
p886
NNNI3
I1
I0
tp887
bS'613'
p888
tp889
Rp890
(dp891
sg8
(g9
(S'S3'
p892
I0
I1
tp893
Rp894
(I3
S'|'
p895
NNNI3
I1
I0
tp896
bS'610'
p897
tp898
Rp899
(dp900
sg8
(g9
(S'S3'
p901
I0
I1
tp902
Rp903
(I3
S'|'
p904
NNNI3
I1
I0
tp905
bS'611'
p906
tp907
Rp908
(dp909
sg8
(g9
(S'S3'
p910
I0
I1
tp911
Rp912
(I3
S'|'
p913
NNNI3
I1
I0
tp914
bS'616'
p915
tp916
Rp917
(dp918
sg8
(g9
(S'S3'
p919
I0
I1
tp920
Rp921
(I3
S'|'
p922
NNNI3
I1
I0
tp923
bS'617'
p924
tp925
Rp926
(dp927
sg8
(g9
(S'S3'
p928
I0
I1
tp929
Rp930
(I3
S'|'
p931
NNNI3
I1
I0
tp932
bS'614'
p933
tp934
Rp935
(dp936
sg8
(g9
(S'S3'
p937
I0
I1
tp938
Rp939
(I3
S'|'
p940
NNNI3
I1
I0
tp941
bS'615'
p942
tp943
Rp944
(dp945
sg8
(g9
(S'S3'
p946
I0
I1
tp947
Rp948
(I3
S'|'
p949
NNNI3
I1
I0
tp950
bS'D43'
p951
tp952
Rp953
(dp954
sg8
(g9
(S'S3'
p955
I0
I1
tp956
Rp957
(I3
S'|'
p958
NNNI3
I1
I0
tp959
bS'D42'
p960
tp961
Rp962
(dp963
sg8
(g9
(S'S3'
p964
I0
I1
tp965
Rp966
(I3
S'|'
p967
NNNI3
I1
I0
tp968
bS'D41'
p969
tp970
Rp971
(dp972
sg8
(g9
(S'S3'
p973
I0
I1
tp974
Rp975
(I3
S'|'
p976
NNNI3
I1
I0
tp977
bS'D40'
p978
tp979
Rp980
(dp981
sg8
(g9
(S'S3'
p982
I0
I1
tp983
Rp984
(I3
S'|'
p985
NNNI3
I1
I0
tp986
bS'A02'
p987
tp988
Rp989
(dp990
sg8
(g9
(S'S3'
p991
I0
I1
tp992
Rp993
(I3
S'|'
p994
NNNI3
I1
I0
tp995
bS'A03'
p996
tp997
Rp998
(dp999
sg8
(g9
(S'S3'
p1000
I0
I1
tp1001
Rp1002
(I3
S'|'
p1003
NNNI3
I1
I0
tp1004
bS'A06'
p1005
tp1006
Rp1007
(dp1008
sg8
(g9
(S'S3'
p1009
I0
I1
tp1010
Rp1011
(I3
S'|'
p1012
NNNI3
I1
I0
tp1013
bS'A07'
p1014
tp1015
Rp1016
(dp1017
sg8
(g9
(S'S3'
p1018
I0
I1
tp1019
Rp1020
(I3
S'|'
p1021
NNNI3
I1
I0
tp1022
bS'A05'
p1023
tp1024
Rp1025
(dp1026
sg8
(g9
(S'S3'
p1027
I0
I1
tp1028
Rp1029
(I3
S'|'
p1030
NNNI3
I1
I0
tp1031
bS'133'
p1032
tp1033
Rp1034
(dp1035
sg8
(g9
(S'S3'
p1036
I0
I1
tp1037
Rp1038
(I3
S'|'
p1039
NNNI3
I1
I0
tp1040
bS'131'
p1041
tp1042
Rp1043
(dp1044
sg8
(g9
(S'S3'
p1045
I0
I1
tp1046
Rp1047
(I3
S'|'
p1048
NNNI3
I1
I0
tp1049
bS'130'
p1050
tp1051
Rp1052
(dp1053
sg8
(g9
(S'S3'
p1054
I0
I1
tp1055
Rp1056
(I3
S'|'
p1057
NNNI3
I1
I0
tp1058
bS'137'
p1059
tp1060
Rp1061
(dp1062
sg8
(g9
(S'S3'
p1063
I0
I1
tp1064
Rp1065
(I3
S'|'
p1066
NNNI3
I1
I0
tp1067
bS'136'
p1068
tp1069
Rp1070
(dp1071
sg8
(g9
(S'S3'
p1072
I0
I1
tp1073
Rp1074
(I3
S'|'
p1075
NNNI3
I1
I0
tp1076
bS'135'
p1077
tp1078
Rp1079
(dp1080
sg8
(g9
(S'S3'
p1081
I0
I1
tp1082
Rp1083
(I3
S'|'
p1084
NNNI3
I1
I0
tp1085
bS'134'
p1086
tp1087
Rp1088
(dp1089
sg8
(g9
(S'S3'
p1090
I0
I1
tp1091
Rp1092
(I3
S'|'
p1093
NNNI3
I1
I0
tp1094
bS'139'
p1095
tp1096
Rp1097
(dp1098
sg8
(g9
(S'S3'
p1099
I0
I1
tp1100
Rp1101
(I3
S'|'
p1102
NNNI3
I1
I0
tp1103
bS'138'
p1104
tp1105
Rp1106
(dp1107
sg8
(g9
(S'S7'
p1108
I0
I1
tp1109
Rp1110
(I3
S'|'
p1111
NNNI7
I1
I0
tp1112
bS'640+M21'
p1113
tp1114
Rp1115
(dp1116
sg8
(g9
(S'S19'
p1117
I0
I1
tp1118
Rp1119
(I3
S'|'
p1120
NNNI19
I1
I0
tp1121
bS'127+725+902+A27+R16'
p1122
tp1123
Rp1124
(dp1125
sg8
(g9
(S'S3'
p1126
I0
I1
tp1127
Rp1128
(I3
S'|'
p1129
NNNI3
I1
I0
tp1130
bS'407'
p1131
tp1132
Rp1133
(dp1134
sg8
(g9
(S'S3'
p1135
I0
I1
tp1136
Rp1137
(I3
S'|'
p1138
NNNI3
I1
I0
tp1139
bS'406'
p1140
tp1141
Rp1142
(dp1143
sg8
(g9
(S'S3'
p1144
I0
I1
tp1145
Rp1146
(I3
S'|'
p1147
NNNI3
I1
I0
tp1148
bS'405'
p1149
tp1150
Rp1151
(dp1152
sg8
(g9
(S'S3'
p1153
I0
I1
tp1154
Rp1155
(I3
S'|'
p1156
NNNI3
I1
I0
tp1157
bS'R39'
p1158
tp1159
Rp1160
(dp1161
sg8
(g9
(S'S3'
p1162
I0
I1
tp1163
Rp1164
(I3
S'|'
p1165
NNNI3
I1
I0
tp1166
bS'401'
p1167
tp1168
Rp1169
(dp1170
sg8
(g9
(S'S3'
p1171
I0
I1
tp1172
Rp1173
(I3
S'|'
p1174
NNNI3
I1
I0
tp1175
bS'R34'
p1176
tp1177
Rp1178
(dp1179
sg8
(g9
(S'S3'
p1180
I0
I1
tp1181
Rp1182
(I3
S'|'
p1183
NNNI3
I1
I0
tp1184
bS'R35'
p1185
tp1186
Rp1187
(dp1188
sg8
(g9
(S'S3'
p1189
I0
I1
tp1190
Rp1191
(I3
S'|'
p1192
NNNI3
I1
I0
tp1193
bS'R36'
p1194
tp1195
Rp1196
(dp1197
sg8
(g9
(S'S3'
p1198
I0
I1
tp1199
Rp1200
(I3
S'|'
p1201
NNNI3
I1
I0
tp1202
bS'R30'
p1203
tp1204
Rp1205
(dp1206
sg8
(g9
(S'S3'
p1207
I0
I1
tp1208
Rp1209
(I3
S'|'
p1210
NNNI3
I1
I0
tp1211
bS'R32'
p1212
tp1213
Rp1214
(dp1215
sg8
(g9
(S'S3'
p1216
I0
I1
tp1217
Rp1218
(I3
S'|'
p1219
NNNI3
I1
I0
tp1220
bS'408'
p1221
tp1222
Rp1223
(dp1224
sg8
(g9
(S'S3'
p1225
I0
I1
tp1226
Rp1227
(I3
S'|'
p1228
NNNI3
I1
I0
tp1229
bS'L08'
p1230
tp1231
Rp1232
(dp1233
sg8
(g9
(S'S3'
p1234
I0
I1
tp1235
Rp1236
(I3
S'|'
p1237
NNNI3
I1
I0
tp1238
bS'L06'
p1239
tp1240
Rp1241
(dp1242
sg8
(g9
(S'S3'
p1243
I0
I1
tp1244
Rp1245
(I3
S'|'
p1246
NNNI3
I1
I0
tp1247
bS'L05'
p1248
tp1249
Rp1250
(dp1251
sg8
(g9
(S'S7'
p1252
I0
I1
tp1253
Rp1254
(I3
S'|'
p1255
NNNI7
I1
I0
tp1256
bS'F23+R33'
p1257
tp1258
Rp1259
(dp1260
sg8
(g9
(S'S3'
p1261
I0
I1
tp1262
Rp1263
(I3
S'|'
p1264
NNNI3
I1
I0
tp1265
bS'708'
p1266
tp1267
Rp1268
(dp1269
sg8
(g9
(S'S3'
p1270
I0
I1
tp1271
Rp1272
(I3
S'|'
p1273
NNNI3
I1
I0
tp1274
bS'709'
p1275
tp1276
Rp1277
(dp1278
sg8
(g9
(S'S3'
p1279
I0
I1
tp1280
Rp1281
(I3
S'|'
p1282
NNNI3
I1
I0
tp1283
bS'705'
p1284
tp1285
Rp1286
(dp1287
sg8
(g9
(S'S3'
p1288
I0
I1
tp1289
Rp1290
(I3
S'|'
p1291
NNNI3
I1
I0
tp1292
bS'706'
p1293
tp1294
Rp1295
(dp1296
sg8
(g9
(S'S3'
p1297
I0
I1
tp1298
Rp1299
(I3
S'|'
p1300
NNNI3
I1
I0
tp1301
bS'707'
p1302
tp1303
Rp1304
(dp1305
sg8
(g9
(S'S3'
p1306
I0
I1
tp1307
Rp1308
(I3
S'|'
p1309
NNNI3
I1
I0
tp1310
bS'701'
p1311
tp1312
Rp1313
(dp1314
sg8
(g9
(S'S3'
p1315
I0
I1
tp1316
Rp1317
(I3
S'|'
p1318
NNNI3
I1
I0
tp1319
bS'702'
p1320
tp1321
Rp1322
(dp1323
sg8
(g9
(S'S7'
p1324
I0
I1
tp1325
Rp1326
(I3
S'|'
p1327
NNNI7
I1
I0
tp1328
bS'125+A24'
p1329
tp1330
Rp1331
(dp1332
sg8
(g9
(S'S3'
p1333
I0
I1
tp1334
Rp1335
(I3
S'|'
p1336
NNNI3
I1
I0
tp1337
bS'J30'
p1338
tp1339
Rp1340
(dp1341
sg8
(g9
(S'S3'
p1342
I0
I1
tp1343
Rp1344
(I3
S'|'
p1345
NNNI3
I1
I0
tp1346
bS'J31'
p1347
tp1348
Rp1349
(dp1350
sg8
(g9
(S'S3'
p1351
I0
I1
tp1352
Rp1353
(I3
S'|'
p1354
NNNI3
I1
I0
tp1355
bS'D07'
p1356
tp1357
Rp1358
(dp1359
sg8
(g9
(S'S3'
p1360
I0
I1
tp1361
Rp1362
(I3
S'|'
p1363
NNNI3
I1
I0
tp1364
bS'D06'
p1365
tp1366
Rp1367
(dp1368
sg8
(g9
(S'S3'
p1369
I0
I1
tp1370
Rp1371
(I3
S'|'
p1372
NNNI3
I1
I0
tp1373
bS'D05'
p1374
tp1375
Rp1376
(dp1377
sg8
(g9
(S'S3'
p1378
I0
I1
tp1379
Rp1380
(I3
S'|'
p1381
NNNI3
I1
I0
tp1382
bS'D04'
p1383
tp1384
Rp1385
(dp1386
sg8
(g9
(S'S3'
p1387
I0
I1
tp1388
Rp1389
(I3
S'|'
p1390
NNNI3
I1
I0
tp1391
bS'D03'
p1392
tp1393
Rp1394
(dp1395
sg8
(g9
(S'S3'
p1396
I0
I1
tp1397
Rp1398
(I3
S'|'
p1399
NNNI3
I1
I0
tp1400
bS'D01'
p1401
tp1402
Rp1403
(dp1404
sg8
(g9
(S'S3'
p1405
I0
I1
tp1406
Rp1407
(I3
S'|'
p1408
NNNI3
I1
I0
tp1409
bS'D09'
p1410
tp1411
Rp1412
(dp1413
sg8
(g9
(S'S3'
p1414
I0
I1
tp1415
Rp1416
(I3
S'|'
p1417
NNNI3
I1
I0
tp1418
bS'D08'
p1419
tp1420
Rp1421
(dp1422
sg8
(g9
(S'S3'
p1423
I0
I1
tp1424
Rp1425
(I3
S'|'
p1426
NNNI3
I1
I0
tp1427
bS'245'
p1428
tp1429
Rp1430
(dp1431
sg8
(g9
(S'S3'
p1432
I0
I1
tp1433
Rp1434
(I3
S'|'
p1435
NNNI3
I1
I0
tp1436
bS'A47'
p1437
tp1438
Rp1439
(dp1440
sg8
(g9
(S'S3'
p1441
I0
I1
tp1442
Rp1443
(I3
S'|'
p1444
NNNI3
I1
I0
tp1445
bS'A44'
p1446
tp1447
Rp1448
(dp1449
sg8
(g9
(S'S3'
p1450
I0
I1
tp1451
Rp1452
(I3
S'|'
p1453
NNNI3
I1
I0
tp1454
bS'246'
p1455
tp1456
Rp1457
(dp1458
sg8
(g9
(S'S3'
p1459
I0
I1
tp1460
Rp1461
(I3
S'|'
p1462
NNNI3
I1
I0
tp1463
bS'241'
p1464
tp1465
Rp1466
(dp1467
sg8
(g9
(S'S3'
p1468
I0
I1
tp1469
Rp1470
(I3
S'|'
p1471
NNNI3
I1
I0
tp1472
bS'A43'
p1473
tp1474
Rp1475
(dp1476
sg8
(g9
(S'S3'
p1477
I0
I1
tp1478
Rp1479
(I3
S'|'
p1480
NNNI3
I1
I0
tp1481
bS'A40'
p1482
tp1483
Rp1484
(dp1485
sg8
(g9
(S'S3'
p1486
I0
I1
tp1487
Rp1488
(I3
S'|'
p1489
NNNI3
I1
I0
tp1490
bS'242'
p1491
tp1492
Rp1493
(dp1494
sg8
(g9
(S'S3'
p1495
I0
I1
tp1496
Rp1497
(I3
S'|'
p1498
NNNI3
I1
I0
tp1499
bS'F12'
p1500
tp1501
Rp1502
(dp1503
sg8
(g9
(S'S3'
p1504
I0
I1
tp1505
Rp1506
(I3
S'|'
p1507
NNNI3
I1
I0
tp1508
bS'F16'
p1509
tp1510
Rp1511
(dp1512
sg8
(g9
(S'S3'
p1513
I0
I1
tp1514
Rp1515
(I3
S'|'
p1516
NNNI3
I1
I0
tp1517
bS'248'
p1518
tp1519
Rp1520
(dp1521
sg8
(g9
(S'S3'
p1522
I0
I1
tp1523
Rp1524
(I3
S'|'
p1525
NNNI3
I1
I0
tp1526
bS'A48'
p1527
tp1528
Rp1529
(dp1530
sg8
(g9
(S'S3'
p1531
I0
I1
tp1532
Rp1533
(I3
S'|'
p1534
NNNI3
I1
I0
tp1535
bS'A49'
p1536
tp1537
Rp1538
(dp1539
sg8
(g9
(S'S3'
p1540
I0
I1
tp1541
Rp1542
(I3
S'|'
p1543
NNNI3
I1
I0
tp1544
bS'N10'
p1545
tp1546
Rp1547
(dp1548
sg8
(g9
(S'S3'
p1549
I0
I1
tp1550
Rp1551
(I3
S'|'
p1552
NNNI3
I1
I0
tp1553
bS'623'
p1554
tp1555
Rp1556
(dp1557
sg8
(g9
(S'S3'
p1558
I0
I1
tp1559
Rp1560
(I3
S'|'
p1561
NNNI3
I1
I0
tp1562
bS'622'
p1563
tp1564
Rp1565
(dp1566
sg8
(g9
(S'S3'
p1567
I0
I1
tp1568
Rp1569
(I3
S'|'
p1570
NNNI3
I1
I0
tp1571
bS'621'
p1572
tp1573
Rp1574
(dp1575
sg8
(g9
(S'S3'
p1576
I0
I1
tp1577
Rp1578
(I3
S'|'
p1579
NNNI3
I1
I0
tp1580
bS'627'
p1581
tp1582
Rp1583
(dp1584
sg8
(g9
(S'S3'
p1585
I0
I1
tp1586
Rp1587
(I3
S'|'
p1588
NNNI3
I1
I0
tp1589
bS'626'
p1590
tp1591
Rp1592
(dp1593
sg8
(g9
(S'S3'
p1594
I0
I1
tp1595
Rp1596
(I3
S'|'
p1597
NNNI3
I1
I0
tp1598
bS'625'
p1599
tp1600
Rp1601
(dp1602
sg8
(g9
(S'S3'
p1603
I0
I1
tp1604
Rp1605
(I3
S'|'
p1606
NNNI3
I1
I0
tp1607
bS'624'
p1608
tp1609
Rp1610
(dp1611
sg8
(g9
(S'S3'
p1612
I0
I1
tp1613
Rp1614
(I3
S'|'
p1615
NNNI3
I1
I0
tp1616
bS'628'
p1617
tp1618
Rp1619
(dp1620
sg8
(g9
(S'S3'
p1621
I0
I1
tp1622
Rp1623
(I3
S'|'
p1624
NNNI3
I1
I0
tp1625
bS'A33'
p1626
tp1627
Rp1628
(dp1629
sg8
(g9
(S'S3'
p1630
I0
I1
tp1631
Rp1632
(I3
S'|'
p1633
NNNI3
I1
I0
tp1634
bS'A30'
p1635
tp1636
Rp1637
(dp1638
sg8
(g9
(S'S3'
p1639
I0
I1
tp1640
Rp1641
(I3
S'|'
p1642
NNNI3
I1
I0
tp1643
bS'A34'
p1644
tp1645
Rp1646
(dp1647
sg8
(g9
(S'S3'
p1648
I0
I1
tp1649
Rp1650
(I3
S'|'
p1651
NNNI3
I1
I0
tp1652
bS'J16'
p1653
tp1654
Rp1655
(dp1656
sg8
(g9
(S'S3'
p1657
I0
I1
tp1658
Rp1659
(I3
S'|'
p1660
NNNI3
I1
I0
tp1661
bS'J17'
p1662
tp1663
Rp1664
(dp1665
sg8
(g9
(S'S11'
p1666
I0
I1
tp1667
Rp1668
(I3
S'|'
p1669
NNNI11
I1
I0
tp1670
bS'132+D19+L02'
p1671
tp1672
Rp1673
(dp1674
sg8
(g9
(S'S3'
p1675
I0
I1
tp1676
Rp1677
(I3
S'|'
p1678
NNNI3
I1
I0
tp1679
bS'A50'
p1680
tp1681
Rp1682
(dp1683
sg8
(g9
(S'S3'
p1684
I0
I1
tp1685
Rp1686
(I3
S'|'
p1687
NNNI3
I1
I0
tp1688
bS'A53'
p1689
tp1690
Rp1691
(dp1692
sg8
(g9
(S'S3'
p1693
I0
I1
tp1694
Rp1695
(I3
S'|'
p1696
NNNI3
I1
I0
tp1697
bS'M11'
p1698
tp1699
Rp1700
(dp1701
sg8
(g9
(S'S3'
p1702
I0
I1
tp1703
Rp1704
(I3
S'|'
p1705
NNNI3
I1
I0
tp1706
bS'M10'
p1707
tp1708
Rp1709
(dp1710
sg8
(g9
(S'S3'
p1711
I0
I1
tp1712
Rp1713
(I3
S'|'
p1714
NNNI3
I1
I0
tp1715
bS'M13'
p1716
tp1717
Rp1718
(dp1719
sg8
(g9
(S'S3'
p1720
I0
I1
tp1721
Rp1722
(I3
S'|'
p1723
NNNI3
I1
I0
tp1724
bS'A52'
p1725
tp1726
Rp1727
(dp1728
sg8
(g9
(S'S3'
p1729
I0
I1
tp1730
Rp1731
(I3
S'|'
p1732
NNNI3
I1
I0
tp1733
bS'R41'
p1734
tp1735
Rp1736
(dp1737
sg8
(g9
(S'S3'
p1738
I0
I1
tp1739
Rp1740
(I3
S'|'
p1741
NNNI3
I1
I0
tp1742
bS'R40'
p1743
tp1744
Rp1745
(dp1746
sg8
(g9
(S'S3'
p1747
I0
I1
tp1748
Rp1749
(I3
S'|'
p1750
NNNI3
I1
I0
tp1751
bS'R43'
p1752
tp1753
Rp1754
(dp1755
sg8
(g9
(S'S3'
p1756
I0
I1
tp1757
Rp1758
(I3
S'|'
p1759
NNNI3
I1
I0
tp1760
bS'R42'
p1761
tp1762
Rp1763
(dp1764
sg8
(g9
(S'S3'
p1765
I0
I1
tp1766
Rp1767
(I3
S'|'
p1768
NNNI3
I1
I0
tp1769
bS'M19'
p1770
tp1771
Rp1772
(dp1773
sg8
(g9
(S'S3'
p1774
I0
I1
tp1775
Rp1776
(I3
S'|'
p1777
NNNI3
I1
I0
tp1778
bS'A55'
p1779
tp1780
Rp1781
(dp1782
sg8
(g9
(S'S3'
p1783
I0
I1
tp1784
Rp1785
(I3
S'|'
p1786
NNNI3
I1
I0
tp1787
bS'A57'
p1788
tp1789
Rp1790
(dp1791
sg8
(g9
(S'S3'
p1792
I0
I1
tp1793
Rp1794
(I3
S'|'
p1795
NNNI3
I1
I0
tp1796
bS'G08'
p1797
tp1798
Rp1799
(dp1800
sg8
(g9
(S'S3'
p1801
I0
I1
tp1802
Rp1803
(I3
S'|'
p1804
NNNI3
I1
I0
tp1805
bS'G09'
p1806
tp1807
Rp1808
(dp1809
sg8
(g9
(S'S3'
p1810
I0
I1
tp1811
Rp1812
(I3
S'|'
p1813
NNNI3
I1
I0
tp1814
bS'G05'
p1815
tp1816
Rp1817
(dp1818
sg8
(g9
(S'S3'
p1819
I0
I1
tp1820
Rp1821
(I3
S'|'
p1822
NNNI3
I1
I0
tp1823
bS'G06'
p1824
tp1825
Rp1826
(dp1827
sg8
(g9
(S'S3'
p1828
I0
I1
tp1829
Rp1830
(I3
S'|'
p1831
NNNI3
I1
I0
tp1832
bS'G07'
p1833
tp1834
Rp1835
(dp1836
sg8
(g9
(S'S3'
p1837
I0
I1
tp1838
Rp1839
(I3
S'|'
p1840
NNNI3
I1
I0
tp1841
bS'201'
p1842
tp1843
Rp1844
(dp1845
sg8
(g9
(S'S3'
p1846
I0
I1
tp1847
Rp1848
(I3
S'|'
p1849
NNNI3
I1
I0
tp1850
bS'205'
p1851
tp1852
Rp1853
(dp1854
sg8
(g9
(S'S3'
p1855
I0
I1
tp1856
Rp1857
(I3
S'|'
p1858
NNNI3
I1
I0
tp1859
bS'204'
p1860
tp1861
Rp1862
(dp1863
sg8
(g9
(S'S3'
p1864
I0
I1
tp1865
Rp1866
(I3
S'|'
p1867
NNNI3
I1
I0
tp1868
bS'207'
p1869
tp1870
Rp1871
(dp1872
sg8
(g9
(S'S3'
p1873
I0
I1
tp1874
Rp1875
(I3
S'|'
p1876
NNNI3
I1
I0
tp1877
bS'206'
p1878
tp1879
Rp1880
(dp1881
sg8
(g9
(S'S3'
p1882
I0
I1
tp1883
Rp1884
(I3
S'|'
p1885
NNNI3
I1
I0
tp1886
bS'209'
p1887
tp1888
Rp1889
(dp1890
sg8
(g9
(S'S3'
p1891
I0
I1
tp1892
Rp1893
(I3
S'|'
p1894
NNNI3
I1
I0
tp1895
bS'208'
p1896
tp1897
Rp1898
(dp1899
sg8
(g9
(S'S11'
p1900
I0
I1
tp1901
Rp1902
(I3
S'|'
p1903
NNNI11
I1
I0
tp1904
bS'228+A36+E01'
p1905
tp1906
Rp1907
(dp1908
sg8
(g9
(S'S11'
p1909
I0
I1
tp1910
Rp1911
(I3
S'|'
p1912
NNNI11
I1
I0
tp1913
bS'A51+J27+L22'
p1914
tp1915
Rp1916
(dp1917
sg8
(g9
(S'S15'
p1918
I0
I1
tp1919
Rp1920
(I3
S'|'
p1921
NNNI15
I1
I0
tp1922
bS'639+M20+Q01+R23'
p1923
tp1924
Rp1925
(dp1926
sg8
(g9
(S'S3'
p1927
I0
I1
tp1928
Rp1929
(I3
S'|'
p1930
NNNI3
I1
I0
tp1931
bS'F22'
p1932
tp1933
Rp1934
(dp1935
sg8
(g9
(S'S3'
p1936
I0
I1
tp1937
Rp1938
(I3
S'|'
p1939
NNNI3
I1
I0
tp1940
bS'F21'
p1941
tp1942
Rp1943
(dp1944
sg8
(g9
(S'S3'
p1945
I0
I1
tp1946
Rp1947
(I3
S'|'
p1948
NNNI3
I1
I0
tp1949
bS'F20'
p1950
tp1951
Rp1952
(dp1953
sg8
(g9
(S'S3'
p1954
I0
I1
tp1955
Rp1956
(I3
S'|'
p1957
NNNI3
I1
I0
tp1958
bS'F27'
p1959
tp1960
Rp1961
(dp1962
sg8
(g9
(S'S3'
p1963
I0
I1
tp1964
Rp1965
(I3
S'|'
p1966
NNNI3
I1
I0
tp1967
bS'F26'
p1968
tp1969
Rp1970
(dp1971
sg8
(g9
(S'S3'
p1972
I0
I1
tp1973
Rp1974
(I3
S'|'
p1975
NNNI3
I1
I0
tp1976
bS'F25'
p1977
tp1978
Rp1979
(dp1980
sg8
(g9
(S'S3'
p1981
I0
I1
tp1982
Rp1983
(I3
S'|'
p1984
NNNI3
I1
I0
tp1985
bS'F24'
p1986
tp1987
Rp1988
(dp1989
sg8
(g9
(S'S3'
p1990
I0
I1
tp1991
Rp1992
(I3
S'|'
p1993
NNNI3
I1
I0
tp1994
bS'F29'
p1995
tp1996
Rp1997
(dp1998
sg8
(g9
(S'S3'
p1999
I0
I1
tp2000
Rp2001
(I3
S'|'
p2002
NNNI3
I1
I0
tp2003
bS'120'
p2004
tp2005
Rp2006
(dp2007
sg8
(g9
(S'S3'
p2008
I0
I1
tp2009
Rp2010
(I3
S'|'
p2011
NNNI3
I1
I0
tp2012
bS'121'
p2013
tp2014
Rp2015
(dp2016
sg8
(g9
(S'S3'
p2017
I0
I1
tp2018
Rp2019
(I3
S'|'
p2020
NNNI3
I1
I0
tp2021
bS'122'
p2022
tp2023
Rp2024
(dp2025
sg8
(g9
(S'S3'
p2026
I0
I1
tp2027
Rp2028
(I3
S'|'
p2029
NNNI3
I1
I0
tp2030
bS'123'
p2031
tp2032
Rp2033
(dp2034
sg8
(g9
(S'S3'
p2035
I0
I1
tp2036
Rp2037
(I3
S'|'
p2038
NNNI3
I1
I0
tp2039
bS'124'
p2040
tp2041
Rp2042
(dp2043
sg8
(g9
(S'S3'
p2044
I0
I1
tp2045
Rp2046
(I3
S'|'
p2047
NNNI3
I1
I0
tp2048
bS'126'
p2049
tp2050
Rp2051
(dp2052
sg8
(g9
(S'S3'
p2053
I0
I1
tp2054
Rp2055
(I3
S'|'
p2056
NNNI3
I1
I0
tp2057
bS'128'
p2058
tp2059
Rp2060
(dp2061
sg8
(g9
(S'S3'
p2062
I0
I1
tp2063
Rp2064
(I3
S'|'
p2065
NNNI3
I1
I0
tp2066
bS'129'
p2067
tp2068
Rp2069
(dp2070
sg8
(g9
(S'S3'
p2071
I0
I1
tp2072
Rp2073
(I3
S'|'
p2074
NNNI3
I1
I0
tp2075
bS'R01'
p2076
tp2077
Rp2078
(dp2079
sg8
(g9
(S'S3'
p2080
I0
I1
tp2081
Rp2082
(I3
S'|'
p2083
NNNI3
I1
I0
tp2084
bS'R03'
p2085
tp2086
Rp2087
(dp2088
sg8
(g9
(S'S3'
p2089
I0
I1
tp2090
Rp2091
(I3
S'|'
p2092
NNNI3
I1
I0
tp2093
bS'R05'
p2094
tp2095
Rp2096
(dp2097
sg8
(g9
(S'S3'
p2098
I0
I1
tp2099
Rp2100
(I3
S'|'
p2101
NNNI3
I1
I0
tp2102
bS'R04'
p2103
tp2104
Rp2105
(dp2106
sg8
(g9
(S'S3'
p2107
I0
I1
tp2108
Rp2109
(I3
S'|'
p2110
NNNI3
I1
I0
tp2111
bS'R06'
p2112
tp2113
Rp2114
(dp2115
sg8
(g9
(S'S3'
p2116
I0
I1
tp2117
Rp2118
(I3
S'|'
p2119
NNNI3
I1
I0
tp2120
bS'R08'
p2121
tp2122
Rp2123
(dp2124
sg8
(g9
(S'S3'
p2125
I0
I1
tp2126
Rp2127
(I3
S'|'
p2128
NNNI3
I1
I0
tp2129
bS'416'
p2130
tp2131
Rp2132
(dp2133
sg8
(g9
(S'S3'
p2134
I0
I1
tp2135
Rp2136
(I3
S'|'
p2137
NNNI3
I1
I0
tp2138
bS'410'
p2139
tp2140
Rp2141
(dp2142
sg8
(g9
(S'S3'
p2143
I0
I1
tp2144
Rp2145
(I3
S'|'
p2146
NNNI3
I1
I0
tp2147
bS'411'
p2148
tp2149
Rp2150
(dp2151
sg8
(g9
(S'S3'
p2152
I0
I1
tp2153
Rp2154
(I3
S'|'
p2155
NNNI3
I1
I0
tp2156
bS'412'
p2157
tp2158
Rp2159
(dp2160
sg8
(g9
(S'S3'
p2161
I0
I1
tp2162
Rp2163
(I3
S'|'
p2164
NNNI3
I1
I0
tp2165
bS'413'
p2166
tp2167
Rp2168
(dp2169
sg8
(g9
(S'S3'
p2170
I0
I1
tp2171
Rp2172
(I3
S'|'
p2173
NNNI3
I1
I0
tp2174
bS'419'
p2175
tp2176
Rp2177
(dp2178
sg8
(g9
(S'S3'
p2179
I0
I1
tp2180
Rp2181
(I3
S'|'
p2182
NNNI3
I1
I0
tp2183
bS'L19'
p2184
tp2185
Rp2186
(dp2187
sg8
(g9
(S'S3'
p2188
I0
I1
tp2189
Rp2190
(I3
S'|'
p2191
NNNI3
I1
I0
tp2192
bS'L14'
p2193
tp2194
Rp2195
(dp2196
sg8
(g9
(S'S3'
p2197
I0
I1
tp2198
Rp2199
(I3
S'|'
p2200
NNNI3
I1
I0
tp2201
bS'L15'
p2202
tp2203
Rp2204
(dp2205
sg8
(g9
(S'S3'
p2206
I0
I1
tp2207
Rp2208
(I3
S'|'
p2209
NNNI3
I1
I0
tp2210
bS'L16'
p2211
tp2212
Rp2213
(dp2214
sg8
(g9
(S'S3'
p2215
I0
I1
tp2216
Rp2217
(I3
S'|'
p2218
NNNI3
I1
I0
tp2219
bS'L11'
p2220
tp2221
Rp2222
(dp2223
sg8
(g9
(S'S3'
p2224
I0
I1
tp2225
Rp2226
(I3
S'|'
p2227
NNNI3
I1
I0
tp2228
bS'L12'
p2229
tp2230
Rp2231
(dp2232
sg8
(g9
(S'S3'
p2233
I0
I1
tp2234
Rp2235
(I3
S'|'
p2236
NNNI3
I1
I0
tp2237
bS'L13'
p2238
tp2239
Rp2240
(dp2241
sg8
(g9
(S'S11'
p2242
I0
I1
tp2243
Rp2244
(I3
S'|'
p2245
NNNI11
I1
I0
tp2246
bS'719+F09+G22'
p2247
tp2248
Rp2249
(dp2250
sg8
(g9
(S'S3'
p2251
I0
I1
tp2252
Rp2253
(I3
S'|'
p2254
NNNI3
I1
I0
tp2255
bS'R45'
p2256
tp2257
Rp2258
(dp2259
sg8
(g9
(S'S7'
p2260
I0
I1
tp2261
Rp2262
(I3
S'|'
p2263
NNNI7
I1
I0
tp2264
bS'414+D11'
p2265
tp2266
Rp2267
(dp2268
sg8
(g9
(S'S3'
p2269
I0
I1
tp2270
Rp2271
(I3
S'|'
p2272
NNNI3
I1
I0
tp2273
bS'R44'
p2274
tp2275
Rp2276
(dp2277
sg8
(g9
(S'S11'
p2278
I0
I1
tp2279
Rp2280
(I3
S'|'
p2281
NNNI11
I1
I0
tp2282
bS'235+D24+R31'
p2283
tp2284
Rp2285
(dp2286
sg8
(g9
(S'S3'
p2287
I0
I1
tp2288
Rp2289
(I3
S'|'
p2290
NNNI3
I1
I0
tp2291
bS'M12'
p2292
tp2293
Rp2294
(dp2295
sg8
(g9
(S'S3'
p2296
I0
I1
tp2297
Rp2298
(I3
S'|'
p2299
NNNI3
I1
I0
tp2300
bS'M14'
p2301
tp2302
Rp2303
(dp2304
sg8
(g9
(S'S3'
p2305
I0
I1
tp2306
Rp2307
(I3
S'|'
p2308
NNNI3
I1
I0
tp2309
bS'M16'
p2310
tp2311
Rp2312
(dp2313
sg8
(g9
(S'S15'
p2314
I0
I1
tp2315
Rp2316
(I3
S'|'
p2317
NNNI15
I1
I0
tp2318
bS'229+418+A38+M22'
p2319
tp2320
Rp2321
(dp2322
sg8
(g9
(S'S7'
p2323
I0
I1
tp2324
Rp2325
(I3
S'|'
p2326
NNNI7
I1
I0
tp2327
bS'A31+L01'
p2328
tp2329
Rp2330
(dp2331
sg8
(g9
(S'S3'
p2332
I0
I1
tp2333
Rp2334
(I3
S'|'
p2335
NNNI3
I1
I0
tp2336
bS'B04'
p2337
tp2338
Rp2339
(dp2340
sg8
(g9
(S'S3'
p2341
I0
I1
tp2342
Rp2343
(I3
S'|'
p2344
NNNI3
I1
I0
tp2345
bS'B06'
p2346
tp2347
Rp2348
(dp2349
sg8
(g9
(S'S3'
p2350
I0
I1
tp2351
Rp2352
(I3
S'|'
p2353
NNNI3
I1
I0
tp2354
bS'D14'
p2355
tp2356
Rp2357
(dp2358
sg8
(g9
(S'S3'
p2359
I0
I1
tp2360
Rp2361
(I3
S'|'
p2362
NNNI3
I1
I0
tp2363
bS'D15'
p2364
tp2365
Rp2366
(dp2367
sg8
(g9
(S'S3'
p2368
I0
I1
tp2369
Rp2370
(I3
S'|'
p2371
NNNI3
I1
I0
tp2372
bS'D10'
p2373
tp2374
Rp2375
(dp2376
sg8
(g9
(S'S3'
p2377
I0
I1
tp2378
Rp2379
(I3
S'|'
p2380
NNNI3
I1
I0
tp2381
bS'D12'
p2382
tp2383
Rp2384
(dp2385
sg8
(g9
(S'S3'
p2386
I0
I1
tp2387
Rp2388
(I3
S'|'
p2389
NNNI3
I1
I0
tp2390
bS'D18'
p2391
tp2392
Rp2393
(dp2394
sg8
(g9
(S'S7'
p2395
I0
I1
tp2396
Rp2397
(I3
S'|'
p2398
NNNI7
I1
I0
tp2399
bS'A45+S01'
p2400
tp2401
Rp2402
(dp2403
sg8
(g9
(S'S3'
p2404
I0
I1
tp2405
Rp2406
(I3
S'|'
p2407
NNNI3
I1
I0
tp2408
bS'252'
p2409
tp2410
Rp2411
(dp2412
sg8
(g9
(S'S3'
p2413
I0
I1
tp2414
Rp2415
(I3
S'|'
p2416
NNNI3
I1
I0
tp2417
bS'253'
p2418
tp2419
Rp2420
(dp2421
sg8
(g9
(S'S3'
p2422
I0
I1
tp2423
Rp2424
(I3
S'|'
p2425
NNNI3
I1
I0
tp2426
bS'250'
p2427
tp2428
Rp2429
(dp2430
sg8
(g9
(S'S3'
p2431
I0
I1
tp2432
Rp2433
(I3
S'|'
p2434
NNNI3
I1
I0
tp2435
bS'251'
p2436
tp2437
Rp2438
(dp2439
sg8
(g9
(S'S3'
p2440
I0
I1
tp2441
Rp2442
(I3
S'|'
p2443
NNNI3
I1
I0
tp2444
bS'256'
p2445
tp2446
Rp2447
(dp2448
sg8
(g9
(S'S3'
p2449
I0
I1
tp2450
Rp2451
(I3
S'|'
p2452
NNNI3
I1
I0
tp2453
bS'257'
p2454
tp2455
Rp2456
(dp2457
sg8
(g9
(S'S3'
p2458
I0
I1
tp2459
Rp2460
(I3
S'|'
p2461
NNNI3
I1
I0
tp2462
bS'255'
p2463
tp2464
Rp2465
(dp2466
sg8
(g9
(S'S3'
p2467
I0
I1
tp2468
Rp2469
(I3
S'|'
p2470
NNNI3
I1
I0
tp2471
bS'504'
p2472
tp2473
Rp2474
(dp2475
sg8
(g9
(S'S3'
p2476
I0
I1
tp2477
Rp2478
(I3
S'|'
p2479
NNNI3
I1
I0
tp2480
bS'505'
p2481
tp2482
Rp2483
(dp2484
sg8
(g9
(S'S3'
p2485
I0
I1
tp2486
Rp2487
(I3
S'|'
p2488
NNNI3
I1
I0
tp2489
bS'502'
p2490
tp2491
Rp2492
(dp2493
sg8
(g9
(S'S3'
p2494
I0
I1
tp2495
Rp2496
(I3
S'|'
p2497
NNNI3
I1
I0
tp2498
bS'503'
p2499
tp2500
Rp2501
(dp2502
sg8
(g9
(S'S3'
p2503
I0
I1
tp2504
Rp2505
(I3
S'|'
p2506
NNNI3
I1
I0
tp2507
bS'501'
p2508
tp2509
Rp2510
(dp2511
sg8
(g9
(S'S3'
p2512
I0
I1
tp2513
Rp2514
(I3
S'|'
p2515
NNNI3
I1
I0
tp2516
bS'632'
p2517
tp2518
Rp2519
(dp2520
sg8
(g9
(S'S3'
p2521
I0
I1
tp2522
Rp2523
(I3
S'|'
p2524
NNNI3
I1
I0
tp2525
bS'633'
p2526
tp2527
Rp2528
(dp2529
sg8
(g9
(S'S3'
p2530
I0
I1
tp2531
Rp2532
(I3
S'|'
p2533
NNNI3
I1
I0
tp2534
bS'634'
p2535
tp2536
Rp2537
(dp2538
sg8
(g9
(S'S3'
p2539
I0
I1
tp2540
Rp2541
(I3
S'|'
p2542
NNNI3
I1
I0
tp2543
bS'636'
p2544
tp2545
Rp2546
(dp2547
sg8
(g9
(S'S3'
p2548
I0
I1
tp2549
Rp2550
(I3
S'|'
p2551
NNNI3
I1
I0
tp2552
bS'638'
p2553
tp2554
Rp2555
(dp2556
sg8
(g9
(S'S3'
p2557
I0
I1
tp2558
Rp2559
(I3
S'|'
p2560
NNNI3
I1
I0
tp2561
bS'402'
p2562
tp2563
Rp2564
(dp2565
sg8
(g9
(S'S7'
p2566
I0
I1
tp2567
Rp2568
(I3
S'|'
p2569
NNNI7
I1
I0
tp2570
bS'710+G14'
p2571
tp2572
Rp2573
(dp2574
sg8
(g9
(S'S3'
p2575
I0
I1
tp2576
Rp2577
(I3
S'|'
p2578
NNNI3
I1
I0
tp2579
bS'A20'
p2580
tp2581
Rp2582
(dp2583
sg8
(g9
(S'S3'
p2584
I0
I1
tp2585
Rp2586
(I3
S'|'
p2587
NNNI3
I1
I0
tp2588
bS'A21'
p2589
tp2590
Rp2591
(dp2592
sg8
(g9
(S'S3'
p2593
I0
I1
tp2594
Rp2595
(I3
S'|'
p2596
NNNI3
I1
I0
tp2597
bS'A22'
p2598
tp2599
Rp2600
(dp2601
sg8
(g9
(S'S3'
p2602
I0
I1
tp2603
Rp2604
(I3
S'|'
p2605
NNNI3
I1
I0
tp2606
bS'A25'
p2607
tp2608
Rp2609
(dp2610
sg8
(g9
(S'S3'
p2611
I0
I1
tp2612
Rp2613
(I3
S'|'
p2614
NNNI3
I1
I0
tp2615
bS'A28'
p2616
tp2617
Rp2618
(dp2619
sg8
(g9
(S'S3'
p2620
I0
I1
tp2621
Rp2622
(I3
S'|'
p2623
NNNI3
I1
I0
tp2624
bS'409'
p2625
tp2626
Rp2627
(dp2628
sg8
(g9
(S'S7'
p2629
I0
I1
tp2630
Rp2631
(I3
S'|'
p2632
NNNI7
I1
I0
tp2633
bS'B16+N04'
p2634
tp2635
Rp2636
(dp2637
sg8
(g9
(S'S11'
p2638
I0
I1
tp2639
Rp2640
(I3
S'|'
p2641
NNNI11
I1
I0
tp2642
bS'631+723+901'
p2643
tp2644
Rp2645
(dp2646
sg8
(g9
(S'S3'
p2647
I0
I1
tp2648
Rp2649
(I3
S'|'
p2650
NNNI3
I1
I0
tp2651
bS'M06'
p2652
tp2653
Rp2654
(dp2655
sg8
(g9
(S'S3'
p2656
I0
I1
tp2657
Rp2658
(I3
S'|'
p2659
NNNI3
I1
I0
tp2660
bS'M04'
p2661
tp2662
Rp2663
(dp2664
sg8
(g9
(S'S3'
p2665
I0
I1
tp2666
Rp2667
(I3
S'|'
p2668
NNNI3
I1
I0
tp2669
bS'M05'
p2670
tp2671
Rp2672
(dp2673
sg8
(g9
(S'S3'
p2674
I0
I1
tp2675
Rp2676
(I3
S'|'
p2677
NNNI3
I1
I0
tp2678
bS'M01'
p2679
tp2680
Rp2681
(dp2682
sg8
(g9
(S'S3'
p2683
I0
I1
tp2684
Rp2685
(I3
S'|'
p2686
NNNI3
I1
I0
tp2687
bS'M09'
p2688
tp2689
Rp2690
(dp2691
sg8
(g9
(S'S3'
p2692
I0
I1
tp2693
Rp2694
(I3
S'|'
p2695
NNNI3
I1
I0
tp2696
bS'G31'
p2697
tp2698
Rp2699
(dp2700
sg8
(g9
(S'S3'
p2701
I0
I1
tp2702
Rp2703
(I3
S'|'
p2704
NNNI3
I1
I0
tp2705
bS'G30'
p2706
tp2707
Rp2708
(dp2709
sg8
(g9
(S'S3'
p2710
I0
I1
tp2711
Rp2712
(I3
S'|'
p2713
NNNI3
I1
I0
tp2714
bS'G33'
p2715
tp2716
Rp2717
(dp2718
sg8
(g9
(S'S3'
p2719
I0
I1
tp2720
Rp2721
(I3
S'|'
p2722
NNNI3
I1
I0
tp2723
bS'G32'
p2724
tp2725
Rp2726
(dp2727
sg8
(g9
(S'S3'
p2728
I0
I1
tp2729
Rp2730
(I3
S'|'
p2731
NNNI3
I1
I0
tp2732
bS'G35'
p2733
tp2734
Rp2735
(dp2736
sg8
(g9
(S'S3'
p2737
I0
I1
tp2738
Rp2739
(I3
S'|'
p2740
NNNI3
I1
I0
tp2741
bS'G34'
p2742
tp2743
Rp2744
(dp2745
sg8
(g9
(S'S3'
p2746
I0
I1
tp2747
Rp2748
(I3
S'|'
p2749
NNNI3
I1
I0
tp2750
bS'G36'
p2751
tp2752
Rp2753
(dp2754
sg8
(g9
(S'S11'
p2755
I0
I1
tp2756
Rp2757
(I3
S'|'
p2758
NNNI11
I1
I0
tp2759
bS'232+423+R28'
p2760
tp2761
Rp2762
(dp2763
sg8
(g9
(S'S3'
p2764
I0
I1
tp2765
Rp2766
(I3
S'|'
p2767
NNNI3
I1
I0
tp2768
bS'216'
p2769
tp2770
Rp2771
(dp2772
sg8
(g9
(S'S3'
p2773
I0
I1
tp2774
Rp2775
(I3
S'|'
p2776
NNNI3
I1
I0
tp2777
bS'217'
p2778
tp2779
Rp2780
(dp2781
sg8
(g9
(S'S3'
p2782
I0
I1
tp2783
Rp2784
(I3
S'|'
p2785
NNNI3
I1
I0
tp2786
bS'214'
p2787
tp2788
Rp2789
(dp2790
sg8
(g9
(S'S3'
p2791
I0
I1
tp2792
Rp2793
(I3
S'|'
p2794
NNNI3
I1
I0
tp2795
bS'215'
p2796
tp2797
Rp2798
(dp2799
sg8
(g9
(S'S3'
p2800
I0
I1
tp2801
Rp2802
(I3
S'|'
p2803
NNNI3
I1
I0
tp2804
bS'212'
p2805
tp2806
Rp2807
(dp2808
sg8
(g9
(S'S3'
p2809
I0
I1
tp2810
Rp2811
(I3
S'|'
p2812
NNNI3
I1
I0
tp2813
bS'213'
p2814
tp2815
Rp2816
(dp2817
sg8
(g9
(S'S3'
p2818
I0
I1
tp2819
Rp2820
(I3
S'|'
p2821
NNNI3
I1
I0
tp2822
bS'210'
p2823
tp2824
Rp2825
(dp2826
sg8
(g9
(S'S3'
p2827
I0
I1
tp2828
Rp2829
(I3
S'|'
p2830
NNNI3
I1
I0
tp2831
bS'211'
p2832
tp2833
Rp2834
(dp2835
sg8
(g9
(S'S3'
p2836
I0
I1
tp2837
Rp2838
(I3
S'|'
p2839
NNNI3
I1
I0
tp2840
bS'218'
p2841
tp2842
Rp2843
(dp2844
sg8
(g9
(S'S3'
p2845
I0
I1
tp2846
Rp2847
(I3
S'|'
p2848
NNNI3
I1
I0
tp2849
bS'219'
p2850
tp2851
Rp2852
(dp2853
sg8
(g9
(S'S7'
p2854
I0
I1
tp2855
Rp2856
(I3
S'|'
p2857
NNNI7
I1
I0
tp2858
bS'112+A09'
p2859
tp2860
Rp2861
(dp2862
sg8
(g9
(S'S3'
p2863
I0
I1
tp2864
Rp2865
(I3
S'|'
p2866
NNNI3
I1
I0
tp2867
bS'F30'
p2868
tp2869
Rp2870
(dp2871
sg8
(g9
(S'S3'
p2872
I0
I1
tp2873
Rp2874
(I3
S'|'
p2875
NNNI3
I1
I0
tp2876
bS'F31'
p2877
tp2878
Rp2879
(dp2880
sg8
(g9
(S'S3'
p2881
I0
I1
tp2882
Rp2883
(I3
S'|'
p2884
NNNI3
I1
I0
tp2885
bS'F32'
p2886
tp2887
Rp2888
(dp2889
sg8
(g9
(S'S3'
p2890
I0
I1
tp2891
Rp2892
(I3
S'|'
p2893
NNNI3
I1
I0
tp2894
bS'F33'
p2895
tp2896
Rp2897
(dp2898
sg8
(g9
(S'S3'
p2899
I0
I1
tp2900
Rp2901
(I3
S'|'
p2902
NNNI3
I1
I0
tp2903
bS'F34'
p2904
tp2905
Rp2906
(dp2907
sg8
(g9
(S'S3'
p2908
I0
I1
tp2909
Rp2910
(I3
S'|'
p2911
NNNI3
I1
I0
tp2912
bS'F35'
p2913
tp2914
Rp2915
(dp2916
sg8
(g9
(S'S3'
p2917
I0
I1
tp2918
Rp2919
(I3
S'|'
p2920
NNNI3
I1
I0
tp2921
bS'F36'
p2922
tp2923
Rp2924
(dp2925
sg8
(g9
(S'S3'
p2926
I0
I1
tp2927
Rp2928
(I3
S'|'
p2929
NNNI3
I1
I0
tp2930
bS'F38'
p2931
tp2932
Rp2933
(dp2934
sg8
(g9
(S'S3'
p2935
I0
I1
tp2936
Rp2937
(I3
S'|'
p2938
NNNI3
I1
I0
tp2939
bS'F39'
p2940
tp2941
Rp2942
(dp2943
sg8
(g9
(S'S3'
p2944
I0
I1
tp2945
Rp2946
(I3
S'|'
p2947
NNNI3
I1
I0
tp2948
bS'A64'
p2949
tp2950
Rp2951
(dp2952
sg8
(g9
(S'S3'
p2953
I0
I1
tp2954
Rp2955
(I3
S'|'
p2956
NNNI3
I1
I0
tp2957
bS'A65'
p2958
tp2959
Rp2960
(dp2961
sg8
(g9
(S'S3'
p2962
I0
I1
tp2963
Rp2964
(I3
S'|'
p2965
NNNI3
I1
I0
tp2966
bS'A60'
p2967
tp2968
Rp2969
(dp2970
sg8
(g9
(S'S3'
p2971
I0
I1
tp2972
Rp2973
(I3
S'|'
p2974
NNNI3
I1
I0
tp2975
bS'A61'
p2976
tp2977
Rp2978
(dp2979
sg8
(g9
(S'S3'
p2980
I0
I1
tp2981
Rp2982
(I3
S'|'
p2983
NNNI3
I1
I0
tp2984
bS'A63'
p2985
tp2986
Rp2987
(dp2988
sg8
(g9
(S'S7'
p2989
I0
I1
tp2990
Rp2991
(I3
S'|'
p2992
NNNI7
I1
I0
tp2993
bS'222+415'
p2994
tp2995
Rp2996
(dp2997
sg8
(g9
(S'S7'
p2998
I0
I1
tp2999
Rp3000
(I3
S'|'
p3001
NNNI7
I1
I0
tp3002
bS'G29+L10'
p3003
tp3004
Rp3005
(dp3006
sg8
(g9
(S'S3'
p3007
I0
I1
tp3008
Rp3009
(I3
S'|'
p3010
NNNI3
I1
I0
tp3011
bS'H09'
p3012
tp3013
Rp3014
(dp3015
sg8
(g9
(S'S3'
p3016
I0
I1
tp3017
Rp3018
(I3
S'|'
p3019
NNNI3
I1
I0
tp3020
bS'H08'
p3021
tp3022
Rp3023
(dp3024
sg8
(g9
(S'S3'
p3025
I0
I1
tp3026
Rp3027
(I3
S'|'
p3028
NNNI3
I1
I0
tp3029
bS'H03'
p3030
tp3031
Rp3032
(dp3033
sg8
(g9
(S'S3'
p3034
I0
I1
tp3035
Rp3036
(I3
S'|'
p3037
NNNI3
I1
I0
tp3038
bS'H02'
p3039
tp3040
Rp3041
(dp3042
sg8
(g9
(S'S3'
p3043
I0
I1
tp3044
Rp3045
(I3
S'|'
p3046
NNNI3
I1
I0
tp3047
bS'H07'
p3048
tp3049
Rp3050
(dp3051
sg8
(g9
(S'S3'
p3052
I0
I1
tp3053
Rp3054
(I3
S'|'
p3055
NNNI3
I1
I0
tp3056
bS'H06'
p3057
tp3058
Rp3059
(dp3060
sg8
(g9
(S'S3'
p3061
I0
I1
tp3062
Rp3063
(I3
S'|'
p3064
NNNI3
I1
I0
tp3065
bS'H04'
p3066
tp3067
Rp3068
(dp3069
sg8
(g9
(S'S3'
p3070
I0
I1
tp3071
Rp3072
(I3
S'|'
p3073
NNNI3
I1
I0
tp3074
bS'115'
p3075
tp3076
Rp3077
(dp3078
sg8
(g9
(S'S3'
p3079
I0
I1
tp3080
Rp3081
(I3
S'|'
p3082
NNNI3
I1
I0
tp3083
bS'114'
p3084
tp3085
Rp3086
(dp3087
sg8
(g9
(S'S3'
p3088
I0
I1
tp3089
Rp3090
(I3
S'|'
p3091
NNNI3
I1
I0
tp3092
bS'117'
p3093
tp3094
Rp3095
(dp3096
sg8
(g9
(S'S3'
p3097
I0
I1
tp3098
Rp3099
(I3
S'|'
p3100
NNNI3
I1
I0
tp3101
bS'116'
p3102
tp3103
Rp3104
(dp3105
sg8
(g9
(S'S3'
p3106
I0
I1
tp3107
Rp3108
(I3
S'|'
p3109
NNNI3
I1
I0
tp3110
bS'111'
p3111
tp3112
Rp3113
(dp3114
sg8
(g9
(S'S3'
p3115
I0
I1
tp3116
Rp3117
(I3
S'|'
p3118
NNNI3
I1
I0
tp3119
bS'110'
p3120
tp3121
Rp3122
(dp3123
sg8
(g9
(S'S3'
p3124
I0
I1
tp3125
Rp3126
(I3
S'|'
p3127
NNNI3
I1
I0
tp3128
bS'113'
p3129
tp3130
Rp3131
(dp3132
sg8
(g9
(S'S3'
p3133
I0
I1
tp3134
Rp3135
(I3
S'|'
p3136
NNNI3
I1
I0
tp3137
bS'119'
p3138
tp3139
Rp3140
(dp3141
sg8
(g9
(S'S3'
p3142
I0
I1
tp3143
Rp3144
(I3
S'|'
p3145
NNNI3
I1
I0
tp3146
bS'118'
p3147
tp3148
Rp3149
(dp3150
sg8
(g9
(S'S3'
p3151
I0
I1
tp3152
Rp3153
(I3
S'|'
p3154
NNNI3
I1
I0
tp3155
bS'R14'
p3156
tp3157
Rp3158
(dp3159
sg8
(g9
(S'S3'
p3160
I0
I1
tp3161
Rp3162
(I3
S'|'
p3163
NNNI3
I1
I0
tp3164
bS'R15'
p3165
tp3166
Rp3167
(dp3168
sg8
(g9
(S'S3'
p3169
I0
I1
tp3170
Rp3171
(I3
S'|'
p3172
NNNI3
I1
I0
tp3173
bS'R13'
p3174
tp3175
Rp3176
(dp3177
sg8
(g9
(S'S3'
p3178
I0
I1
tp3179
Rp3180
(I3
S'|'
p3181
NNNI3
I1
I0
tp3182
bS'R18'
p3183
tp3184
Rp3185
(dp3186
sg8
(g9
(S'S3'
p3187
I0
I1
tp3188
Rp3189
(I3
S'|'
p3190
NNNI3
I1
I0
tp3191
bS'R19'
p3192
tp3193
Rp3194
(dp3195
sg8
(g9
(S'S3'
p3196
I0
I1
tp3197
Rp3198
(I3
S'|'
p3199
NNNI3
I1
I0
tp3200
bS'420'
p3201
tp3202
Rp3203
(dp3204
sg8
(g9
(S'S3'
p3205
I0
I1
tp3206
Rp3207
(I3
S'|'
p3208
NNNI3
I1
I0
tp3209
bS'301'
p3210
tp3211
Rp3212
(dp3213
sg8
(g9
(S'S3'
p3214
I0
I1
tp3215
Rp3216
(I3
S'|'
p3217
NNNI3
I1
I0
tp3218
bS'302'
p3219
tp3220
Rp3221
(dp3222
sg8
(g9
(S'S7'
p3223
I0
I1
tp3224
Rp3225
(I3
S'|'
p3226
NNNI7
I1
I0
tp3227
bS'A32+D20'
p3228
tp3229
Rp3230
(dp3231
sg8
(g9
(S'S3'
p3232
I0
I1
tp3233
Rp3234
(I3
S'|'
p3235
NNNI3
I1
I0
tp3236
bS'R60'
p3237
tp3238
Rp3239
(dp3240
sg8
(g9
(S'S7'
p3241
I0
I1
tp3242
Rp3243
(I3
S'|'
p3244
NNNI7
I1
I0
tp3245
bS'630+F11'
p3246
tp3247
Rp3248
(dp3249
sg8
(g9
(S'S3'
p3250
I0
I1
tp3251
Rp3252
(I3
S'|'
p3253
NNNI3
I1
I0
tp3254
bS'B17'
p3255
tp3256
Rp3257
(dp3258
sg8
(g9
(S'S3'
p3259
I0
I1
tp3260
Rp3261
(I3
S'|'
p3262
NNNI3
I1
I0
tp3263
bS'B14'
p3264
tp3265
Rp3266
(dp3267
sg8
(g9
(S'S3'
p3268
I0
I1
tp3269
Rp3270
(I3
S'|'
p3271
NNNI3
I1
I0
tp3272
bS'B15'
p3273
tp3274
Rp3275
(dp3276
sg8
(g9
(S'S3'
p3277
I0
I1
tp3278
Rp3279
(I3
S'|'
p3280
NNNI3
I1
I0
tp3281
bS'B12'
p3282
tp3283
Rp3284
(dp3285
sg8
(g9
(S'S3'
p3286
I0
I1
tp3287
Rp3288
(I3
S'|'
p3289
NNNI3
I1
I0
tp3290
bS'B13'
p3291
tp3292
Rp3293
(dp3294
sg8
(g9
(S'S3'
p3295
I0
I1
tp3296
Rp3297
(I3
S'|'
p3298
NNNI3
I1
I0
tp3299
bS'B10'
p3300
tp3301
Rp3302
(dp3303
sg8
(g9
(S'S3'
p3304
I0
I1
tp3305
Rp3306
(I3
S'|'
p3307
NNNI3
I1
I0
tp3308
bS'B18'
p3309
tp3310
Rp3311
(dp3312
sg8
(g9
(S'S3'
p3313
I0
I1
tp3314
Rp3315
(I3
S'|'
p3316
NNNI3
I1
I0
tp3317
bS'B19'
p3318
tp3319
Rp3320
(dp3321
sg8
(g9
(S'S3'
p3322
I0
I1
tp3323
Rp3324
(I3
S'|'
p3325
NNNI3
I1
I0
tp3326
bS'L21'
p3327
tp3328
Rp3329
(dp3330
sg8
(g9
(S'S3'
p3331
I0
I1
tp3332
Rp3333
(I3
S'|'
p3334
NNNI3
I1
I0
tp3335
bS'L20'
p3336
tp3337
Rp3338
(dp3339
sg8
(g9
(S'S3'
p3340
I0
I1
tp3341
Rp3342
(I3
S'|'
p3343
NNNI3
I1
I0
tp3344
bS'L25'
p3345
tp3346
Rp3347
(dp3348
sg8
(g9
(S'S3'
p3349
I0
I1
tp3350
Rp3351
(I3
S'|'
p3352
NNNI3
I1
I0
tp3353
bS'L24'
p3354
tp3355
Rp3356
(dp3357
sg8
(g9
(S'S3'
p3358
I0
I1
tp3359
Rp3360
(I3
S'|'
p3361
NNNI3
I1
I0
tp3362
bS'L27'
p3363
tp3364
Rp3365
(dp3366
sg8
(g9
(S'S3'
p3367
I0
I1
tp3368
Rp3369
(I3
S'|'
p3370
NNNI3
I1
I0
tp3371
bS'J19'
p3372
tp3373
Rp3374
(dp3375
sg8
(g9
(S'S3'
p3376
I0
I1
tp3377
Rp3378
(I3
S'|'
p3379
NNNI3
I1
I0
tp3380
bS'L29'
p3381
tp3382
Rp3383
(dp3384
sg8
(g9
(S'S3'
p3385
I0
I1
tp3386
Rp3387
(I3
S'|'
p3388
NNNI3
I1
I0
tp3389
bS'L28'
p3390
tp3391
Rp3392
(dp3393
sg8
(g9
(S'S3'
p3394
I0
I1
tp3395
Rp3396
(I3
S'|'
p3397
NNNI3
I1
I0
tp3398
bS'J14'
p3399
tp3400
Rp3401
(dp3402
sg8
(g9
(S'S3'
p3403
I0
I1
tp3404
Rp3405
(I3
S'|'
p3406
NNNI3
I1
I0
tp3407
bS'J15'
p3408
tp3409
Rp3410
(dp3411
sg8
(g9
(S'S3'
p3412
I0
I1
tp3413
Rp3414
(I3
S'|'
p3415
NNNI3
I1
I0
tp3416
bS'J12'
p3417
tp3418
Rp3419
(dp3420
sg8
(g9
(S'S3'
p3421
I0
I1
tp3422
Rp3423
(I3
S'|'
p3424
NNNI3
I1
I0
tp3425
bS'J13'
p3426
tp3427
Rp3428
(dp3429
sg8
(g9
(S'S3'
p3430
I0
I1
tp3431
Rp3432
(I3
S'|'
p3433
NNNI3
I1
I0
tp3434
bS'D29'
p3435
tp3436
Rp3437
(dp3438
sg8
(g9
(S'S3'
p3439
I0
I1
tp3440
Rp3441
(I3
S'|'
p3442
NNNI3
I1
I0
tp3443
bS'D28'
p3444
tp3445
Rp3446
(dp3447
sg8
(g9
(S'S3'
p3448
I0
I1
tp3449
Rp3450
(I3
S'|'
p3451
NNNI3
I1
I0
tp3452
bS'D22'
p3453
tp3454
Rp3455
(dp3456
sg8
(g9
(S'S3'
p3457
I0
I1
tp3458
Rp3459
(I3
S'|'
p3460
NNNI3
I1
I0
tp3461
bS'D25'
p3462
tp3463
Rp3464
(dp3465
sg8
(g9
(S'S3'
p3466
I0
I1
tp3467
Rp3468
(I3
S'|'
p3469
NNNI3
I1
I0
tp3470
bS'D27'
p3471
tp3472
Rp3473
(dp3474
sg8
(g9
(S'S3'
p3475
I0
I1
tp3476
Rp3477
(I3
S'|'
p3478
NNNI3
I1
I0
tp3479
bS'D26'
p3480
tp3481
Rp3482
(dp3483
sg8
(g9
(S'S3'
p3484
I0
I1
tp3485
Rp3486
(I3
S'|'
p3487
NNNI3
I1
I0
tp3488
bS'227'
p3489
tp3490
Rp3491
(dp3492
sg8
(g9
(S'S3'
p3493
I0
I1
tp3494
Rp3495
(I3
S'|'
p3496
NNNI3
I1
I0
tp3497
bS'226'
p3498
tp3499
Rp3500
(dp3501
sg8
(g9
(S'S3'
p3502
I0
I1
tp3503
Rp3504
(I3
S'|'
p3505
NNNI3
I1
I0
tp3506
bS'225'
p3507
tp3508
Rp3509
(dp3510
sg8
(g9
(S'S3'
p3511
I0
I1
tp3512
Rp3513
(I3
S'|'
p3514
NNNI3
I1
I0
tp3515
bS'224'
p3516
tp3517
Rp3518
(dp3519
sg8
(g9
(S'S3'
p3520
I0
I1
tp3521
Rp3522
(I3
S'|'
p3523
NNNI3
I1
I0
tp3524
bS'221'
p3525
tp3526
Rp3527
(dp3528
sg8
(g9
(S'S3'
p3529
I0
I1
tp3530
Rp3531
(I3
S'|'
p3532
NNNI3
I1
I0
tp3533
bS'220'
p3534
tp3535
Rp3536
(dp3537
sg8
(g9
(S'S3'
p3538
I0
I1
tp3539
Rp3540
(I3
S'|'
p3541
NNNI3
I1
I0
tp3542
bS'S03'
p3543
tp3544
Rp3545
(dp3546
sg8
(g9
(S'S3'
p3547
I0
I1
tp3548
Rp3549
(I3
S'|'
p3550
NNNI3
I1
I0
tp3551
bS'720'
p3552
tp3553
Rp3554
(dp3555
sg8
(g9
(S'S3'
p3556
I0
I1
tp3557
Rp3558
(I3
S'|'
p3559
NNNI3
I1
I0
tp3560
bS'721'
p3561
tp3562
Rp3563
(dp3564
sg8
(g9
(S'S3'
p3565
I0
I1
tp3566
Rp3567
(I3
S'|'
p3568
NNNI3
I1
I0
tp3569
bS'604'
p3570
tp3571
Rp3572
(dp3573
sg8
(g9
(S'S3'
p3574
I0
I1
tp3575
Rp3576
(I3
S'|'
p3577
NNNI3
I1
I0
tp3578
bS'607'
p3579
tp3580
Rp3581
(dp3582
sg8
(g9
(S'S3'
p3583
I0
I1
tp3584
Rp3585
(I3
S'|'
p3586
NNNI3
I1
I0
tp3587
bS'606'
p3588
tp3589
Rp3590
(dp3591
sg8
(g9
(S'S3'
p3592
I0
I1
tp3593
Rp3594
(I3
S'|'
p3595
NNNI3
I1
I0
tp3596
bS'601'
p3597
tp3598
Rp3599
(dp3600
sg8
(g9
(S'S3'
p3601
I0
I1
tp3602
Rp3603
(I3
S'|'
p3604
NNNI3
I1
I0
tp3605
bS'603'
p3606
tp3607
Rp3608
(dp3609
sg8
(g9
(S'S3'
p3610
I0
I1
tp3611
Rp3612
(I3
S'|'
p3613
NNNI3
I1
I0
tp3614
bS'602'
p3615
tp3616
Rp3617
(dp3618
sg8
(g9
(S'S3'
p3619
I0
I1
tp3620
Rp3621
(I3
S'|'
p3622
NNNI3
I1
I0
tp3623
bS'609'
p3624
tp3625
Rp3626
(dp3627
sg8
(g9
(S'S3'
p3628
I0
I1
tp3629
Rp3630
(I3
S'|'
p3631
NNNI3
I1
I0
tp3632
bS'608'
p3633
tp3634
Rp3635
(dp3636
sg8
(g9
(S'S7'
p3637
I0
I1
tp3638
Rp3639
(I3
S'|'
p3640
NNNI7
I1
I0
tp3641
bS'L17+M08'
p3642
tp3643
Rp3644
(dp3645
sg8
(g9
(S'S3'
p3646
I0
I1
tp3647
Rp3648
(I3
S'|'
p3649
NNNI3
I1
I0
tp3650
bS'A15'
p3651
tp3652
Rp3653
(dp3654
sg8
(g9
(S'S3'
p3655
I0
I1
tp3656
Rp3657
(I3
S'|'
p3658
NNNI3
I1
I0
tp3659
bS'A14'
p3660
tp3661
Rp3662
(dp3663
sg8
(g9
(S'S3'
p3664
I0
I1
tp3665
Rp3666
(I3
S'|'
p3667
NNNI3
I1
I0
tp3668
bS'A17'
p3669
tp3670
Rp3671
(dp3672
sg8
(g9
(S'S3'
p3673
I0
I1
tp3674
Rp3675
(I3
S'|'
p3676
NNNI3
I1
I0
tp3677
bS'A16'
p3678
tp3679
Rp3680
(dp3681
sg8
(g9
(S'S3'
p3682
I0
I1
tp3683
Rp3684
(I3
S'|'
p3685
NNNI3
I1
I0
tp3686
bS'A11'
p3687
tp3688
Rp3689
(dp3690
sg8
(g9
(S'S3'
p3691
I0
I1
tp3692
Rp3693
(I3
S'|'
p3694
NNNI3
I1
I0
tp3695
bS'A10'
p3696
tp3697
Rp3698
(dp3699
sg8
(g9
(S'S3'
p3700
I0
I1
tp3701
Rp3702
(I3
S'|'
p3703
NNNI3
I1
I0
tp3704
bS'A19'
p3705
tp3706
Rp3707
(dp3708
sg8
(g9
(S'S3'
p3709
I0
I1
tp3710
Rp3711
(I3
S'|'
p3712
NNNI3
I1
I0
tp3713
bS'A18'
p3714
tp3715
Rp3716
(dp3717
sg8
(g9
(S'S3'
p3718
I0
I1
tp3719
Rp3720
(I3
S'|'
p3721
NNNI3
I1
I0
tp3722
bS'R27'
p3723
tp3724
Rp3725
(dp3726
sg8
(g9
(S'S7'
p3727
I0
I1
tp3728
Rp3729
(I3
S'|'
p3730
NNNI7
I1
I0
tp3731
bS'239+S04'
p3732
tp3733
Rp3734
(dp3735
sg8
(g9
(S'S3'
p3736
I0
I1
tp3737
Rp3738
(I3
S'|'
p3739
NNNI3
I1
I0
tp3740
bS'R29'
p3741
tp3742
Rp3743
(dp3744
sg8
(g9
(S'S3'
p3745
I0
I1
tp3746
Rp3747
(I3
S'|'
p3748
NNNI3
I1
I0
tp3749
bS'F18'
p3750
tp3751
Rp3752
(dp3753
sg8
(g9
(S'S3'
p3754
I0
I1
tp3755
Rp3756
(I3
S'|'
p3757
NNNI3
I1
I0
tp3758
bS'R26'
p3759
tp3760
Rp3761
(dp3762
sg8
(g9
(S'S3'
p3763
I0
I1
tp3764
Rp3765
(I3
S'|'
p3766
NNNI3
I1
I0
tp3767
bS'R25'
p3768
tp3769
Rp3770
(dp3771
sg8
(g9
(S'S3'
p3772
I0
I1
tp3773
Rp3774
(I3
S'|'
p3775
NNNI3
I1
I0
tp3776
bS'R24'
p3777
tp3778
Rp3779
(dp3780
sg8
(g9
(S'S3'
p3781
I0
I1
tp3782
Rp3783
(I3
S'|'
p3784
NNNI3
I1
I0
tp3785
bS'R22'
p3786
tp3787
Rp3788
(dp3789
sg8
(g9
(S'S3'
p3790
I0
I1
tp3791
Rp3792
(I3
S'|'
p3793
NNNI3
I1
I0
tp3794
bS'R21'
p3795
tp3796
Rp3797
(dp3798
ssS'graph'
p3799
(dp3800
sS'edge'
p3801
(dp3802
g17
(dp3803
g8
(g9
(S'S3'
p3804
I0
I1
tp3805
Rp3806
(I3
S'|'
p3807
NNNI3
I1
I0
tp3808
bS'G24'
p3809
tp3810
Rp3811
(dp3812
sg8
(g9
(S'S3'
p3813
I0
I1
tp3814
Rp3815
(I3
S'|'
p3816
NNNI3
I1
I0
tp3817
bS'G28'
p3818
tp3819
Rp3820
(dp3821
ssg26
(dp3822
g8
(g9
(S'S3'
p3823
I0
I1
tp3824
Rp3825
(I3
S'|'
p3826
NNNI3
I1
I0
tp3827
bS'G26'
p3828
tp3829
Rp3830
g3812
sg8
(g9
(S'S11'
p3831
I0
I1
tp3832
Rp3833
(I3
S'|'
p3834
NNNI11
I1
I0
tp3835
bS'719+F09+G22'
p3836
tp3837
Rp3838
(dp3839
ssg35
(dp3840
g8
(g9
(S'S3'
p3841
I0
I1
tp3842
Rp3843
(I3
S'|'
p3844
NNNI3
I1
I0
tp3845
bS'G19'
p3846
tp3847
Rp3848
(dp3849
sg8
(g9
(S'S3'
p3850
I0
I1
tp3851
Rp3852
(I3
S'|'
p3853
NNNI3
I1
I0
tp3854
bS'G21'
p3855
tp3856
Rp3857
(dp3858
ssg44
(dp3859
g8
(g9
(S'S11'
p3860
I0
I1
tp3861
Rp3862
(I3
S'|'
p3863
NNNI11
I1
I0
tp3864
bS'629+B08+R11'
p3865
tp3866
Rp3867
(dp3868
sg8
(g9
(S'S11'
p3869
I0
I1
tp3870
Rp3871
(I3
S'|'
p3872
NNNI11
I1
I0
tp3873
bS'719+F09+G22'
p3874
tp3875
Rp3876
(dp3877
sg8
(g9
(S'S7'
p3878
I0
I1
tp3879
Rp3880
(I3
S'|'
p3881
NNNI7
I1
I0
tp3882
bS'710+G14'
p3883
tp3884
Rp3885
(dp3886
sg8
(g9
(S'S3'
p3887
I0
I1
tp3888
Rp3889
(I3
S'|'
p3890
NNNI3
I1
I0
tp3891
bS'G20'
p3892
tp3893
Rp3894
g3858
ssg53
(dp3895
g8
(g9
(S'S3'
p3896
I0
I1
tp3897
Rp3898
(I3
S'|'
p3899
NNNI3
I1
I0
tp3900
bS'G26'
p3901
tp3902
Rp3903
g3821
sg8
(g9
(S'S7'
p3904
I0
I1
tp3905
Rp3906
(I3
S'|'
p3907
NNNI7
I1
I0
tp3908
bS'G29+L10'
p3909
tp3910
Rp3911
(dp3912
ssg62
(dp3913
g8
(g9
(S'S7'
p3914
I0
I1
tp3915
Rp3916
(I3
S'|'
p3917
NNNI7
I1
I0
tp3918
bS'630+F11'
p3919
tp3920
Rp3921
(dp3922
sg8
(g9
(S'S7'
p3923
I0
I1
tp3924
Rp3925
(I3
S'|'
p3926
NNNI7
I1
I0
tp3927
bS'718+R09'
p3928
tp3929
Rp3930
(dp3931
sg8
(g9
(S'S11'
p3932
I0
I1
tp3933
Rp3934
(I3
S'|'
p3935
NNNI11
I1
I0
tp3936
bS'631+723+901'
p3937
tp3938
Rp3939
(dp3940
sg8
(g9
(S'S3'
p3941
I0
I1
tp3942
Rp3943
(I3
S'|'
p3944
NNNI3
I1
I0
tp3945
bS'628'
p3946
tp3947
Rp3948
(dp3949
sg8
(g9
(S'S3'
p3950
I0
I1
tp3951
Rp3952
(I3
S'|'
p3953
NNNI3
I1
I0
tp3954
bS'R13'
p3955
tp3956
Rp3957
(dp3958
sg8
(g9
(S'S3'
p3959
I0
I1
tp3960
Rp3961
(I3
S'|'
p3962
NNNI3
I1
I0
tp3963
bS'R60'
p3964
tp3965
Rp3966
(dp3967
sg8
(g9
(S'S3'
p3968
I0
I1
tp3969
Rp3970
(I3
S'|'
p3971
NNNI3
I1
I0
tp3972
bS'B10'
p3973
tp3974
Rp3975
(dp3976
sg8
(g9
(S'S3'
p3977
I0
I1
tp3978
Rp3979
(I3
S'|'
p3980
NNNI3
I1
I0
tp3981
bS'B06'
p3982
tp3983
Rp3984
(dp3985
sg8
(g9
(S'S3'
p3986
I0
I1
tp3987
Rp3988
(I3
S'|'
p3989
NNNI3
I1
I0
tp3990
bS'G21'
p3991
tp3992
Rp3993
g3868
sg8
(g9
(S'S3'
p3994
I0
I1
tp3995
Rp3996
(I3
S'|'
p3997
NNNI3
I1
I0
tp3998
bS'626'
p3999
tp4000
Rp4001
(dp4002
ssg71
(dp4003
g8
(g9
(S'S7'
p4004
I0
I1
tp4005
Rp4006
(I3
S'|'
p4007
NNNI7
I1
I0
tp4008
bS'640+M21'
p4009
tp4010
Rp4011
(dp4012
sg8
(g9
(S'S3'
p4013
I0
I1
tp4014
Rp4015
(I3
S'|'
p4016
NNNI3
I1
I0
tp4017
bS'634'
p4018
tp4019
Rp4020
(dp4021
sg8
(g9
(S'S3'
p4022
I0
I1
tp4023
Rp4024
(I3
S'|'
p4025
NNNI3
I1
I0
tp4026
bS'636'
p4027
tp4028
Rp4029
(dp4030
sg8
(g9
(S'S11'
p4031
I0
I1
tp4032
Rp4033
(I3
S'|'
p4034
NNNI11
I1
I0
tp4035
bS'631+723+901'
p4036
tp4037
Rp4038
(dp4039
sg8
(g9
(S'S7'
p4040
I0
I1
tp4041
Rp4042
(I3
S'|'
p4043
NNNI7
I1
I0
tp4044
bS'D17+R17'
p4045
tp4046
Rp4047
(dp4048
sg8
(g9
(S'S3'
p4049
I0
I1
tp4050
Rp4051
(I3
S'|'
p4052
NNNI3
I1
I0
tp4053
bS'L05'
p4054
tp4055
Rp4056
(dp4057
sg8
(g9
(S'S15'
p4058
I0
I1
tp4059
Rp4060
(I3
S'|'
p4061
NNNI15
I1
I0
tp4062
bS'639+M20+Q01+R23'
p4063
tp4064
Rp4065
(dp4066
sg8
(g9
(S'S3'
p4067
I0
I1
tp4068
Rp4069
(I3
S'|'
p4070
NNNI3
I1
I0
tp4071
bS'R19'
p4072
tp4073
Rp4074
(dp4075
sg8
(g9
(S'S11'
p4076
I0
I1
tp4077
Rp4078
(I3
S'|'
p4079
NNNI11
I1
I0
tp4080
bS'132+D19+L02'
p4081
tp4082
Rp4083
(dp4084
sg8
(g9
(S'S3'
p4085
I0
I1
tp4086
Rp4087
(I3
S'|'
p4088
NNNI3
I1
I0
tp4089
bS'R21'
p4090
tp4091
Rp4092
(dp4093
ssg80
(dp4094
g8
(g9
(S'S7'
p4095
I0
I1
tp4096
Rp4097
(I3
S'|'
p4098
NNNI7
I1
I0
tp4099
bS'718+R09'
p4100
tp4101
Rp4102
(dp4103
sg8
(g9
(S'S3'
p4104
I0
I1
tp4105
Rp4106
(I3
S'|'
p4107
NNNI3
I1
I0
tp4108
bS'715'
p4109
tp4110
Rp4111
(dp4112
ssg89
(dp4113
g8
(g9
(S'S3'
p4114
I0
I1
tp4115
Rp4116
(I3
S'|'
p4117
NNNI3
I1
I0
tp4118
bS'716'
p4119
tp4120
Rp4121
g4112
sg8
(g9
(S'S3'
p4122
I0
I1
tp4123
Rp4124
(I3
S'|'
p4125
NNNI3
I1
I0
tp4126
bS'714'
p4127
tp4128
Rp4129
(dp4130
ssg98
(dp4131
g8
(g9
(S'S3'
p4132
I0
I1
tp4133
Rp4134
(I3
S'|'
p4135
NNNI3
I1
I0
tp4136
bS'715'
p4137
tp4138
Rp4139
g4130
sg8
(g9
(S'S3'
p4140
I0
I1
tp4141
Rp4142
(I3
S'|'
p4143
NNNI3
I1
I0
tp4144
bS'713'
p4145
tp4146
Rp4147
(dp4148
ssg107
(dp4149
g8
(g9
(S'S3'
p4150
I0
I1
tp4151
Rp4152
(I3
S'|'
p4153
NNNI3
I1
I0
tp4154
bS'714'
p4155
tp4156
Rp4157
g4148
sg8
(g9
(S'S3'
p4158
I0
I1
tp4159
Rp4160
(I3
S'|'
p4161
NNNI3
I1
I0
tp4162
bS'712'
p4163
tp4164
Rp4165
(dp4166
ssg116
(dp4167
g8
(g9
(S'S3'
p4168
I0
I1
tp4169
Rp4170
(I3
S'|'
p4171
NNNI3
I1
I0
tp4172
bS'713'
p4173
tp4174
Rp4175
g4166
sg8
(g9
(S'S3'
p4176
I0
I1
tp4177
Rp4178
(I3
S'|'
p4179
NNNI3
I1
I0
tp4180
bS'711'
p4181
tp4182
Rp4183
(dp4184
ssg125
(dp4185
g8
(g9
(S'S3'
p4186
I0
I1
tp4187
Rp4188
(I3
S'|'
p4189
NNNI3
I1
I0
tp4190
bS'712'
p4191
tp4192
Rp4193
g4184
sg8
(g9
(S'S7'
p4194
I0
I1
tp4195
Rp4196
(I3
S'|'
p4197
NNNI7
I1
I0
tp4198
bS'710+G14'
p4199
tp4200
Rp4201
(dp4202
ssg134
(dp4203
g8
(g9
(S'S3'
p4204
I0
I1
tp4205
Rp4206
(I3
S'|'
p4207
NNNI3
I1
I0
tp4208
bS'R15'
p4209
tp4210
Rp4211
(dp4212
sg8
(g9
(S'S11'
p4213
I0
I1
tp4214
Rp4215
(I3
S'|'
p4216
NNNI11
I1
I0
tp4217
bS'635+L03+R20'
p4218
tp4219
Rp4220
g4048
sg8
(g9
(S'S7'
p4221
I0
I1
tp4222
Rp4223
(I3
S'|'
p4224
NNNI7
I1
I0
tp4225
bS'A32+D20'
p4226
tp4227
Rp4228
(dp4229
sg8
(g9
(S'S3'
p4230
I0
I1
tp4231
Rp4232
(I3
S'|'
p4233
NNNI3
I1
I0
tp4234
bS'D18'
p4235
tp4236
Rp4237
(dp4238
sg8
(g9
(S'S7'
p4239
I0
I1
tp4240
Rp4241
(I3
S'|'
p4242
NNNI7
I1
I0
tp4243
bS'724+D16'
p4244
tp4245
Rp4246
(dp4247
sg8
(g9
(S'S19'
p4248
I0
I1
tp4249
Rp4250
(I3
S'|'
p4251
NNNI19
I1
I0
tp4252
bS'127+725+902+A27+R16'
p4253
tp4254
Rp4255
(dp4256
sg8
(g9
(S'S3'
p4257
I0
I1
tp4258
Rp4259
(I3
S'|'
p4260
NNNI3
I1
I0
tp4261
bS'R18'
p4262
tp4263
Rp4264
(dp4265
ssg143
(dp4266
g8
(g9
(S'S3'
p4267
I0
I1
tp4268
Rp4269
(I3
S'|'
p4270
NNNI3
I1
I0
tp4271
bS'D43'
p4272
tp4273
Rp4274
(dp4275
sg8
(g9
(S'S3'
p4276
I0
I1
tp4277
Rp4278
(I3
S'|'
p4279
NNNI3
I1
I0
tp4280
bS'B22'
p4281
tp4282
Rp4283
(dp4284
ssg152
(dp4285
g8
(g9
(S'S3'
p4286
I0
I1
tp4287
Rp4288
(I3
S'|'
p4289
NNNI3
I1
I0
tp4290
bS'B23'
p4291
tp4292
Rp4293
g4284
sg8
(g9
(S'S3'
p4294
I0
I1
tp4295
Rp4296
(I3
S'|'
p4297
NNNI3
I1
I0
tp4298
bS'B21'
p4299
tp4300
Rp4301
(dp4302
ssg161
(dp4303
g8
(g9
(S'S3'
p4304
I0
I1
tp4305
Rp4306
(I3
S'|'
p4307
NNNI3
I1
I0
tp4308
bS'B22'
p4309
tp4310
Rp4311
g4302
sg8
(g9
(S'S3'
p4312
I0
I1
tp4313
Rp4314
(I3
S'|'
p4315
NNNI3
I1
I0
tp4316
bS'B20'
p4317
tp4318
Rp4319
(dp4320
ssg170
(dp4321
g8
(g9
(S'S3'
p4322
I0
I1
tp4323
Rp4324
(I3
S'|'
p4325
NNNI3
I1
I0
tp4326
bS'B21'
p4327
tp4328
Rp4329
g4320
sg8
(g9
(S'S3'
p4330
I0
I1
tp4331
Rp4332
(I3
S'|'
p4333
NNNI3
I1
I0
tp4334
bS'B19'
p4335
tp4336
Rp4337
(dp4338
ssg179
(dp4339
g8
(g9
(S'S11'
p4340
I0
I1
tp4341
Rp4342
(I3
S'|'
p4343
NNNI11
I1
I0
tp4344
bS'629+B08+R11'
p4345
tp4346
Rp4347
g3931
sg8
(g9
(S'S3'
p4348
I0
I1
tp4349
Rp4350
(I3
S'|'
p4351
NNNI3
I1
I0
tp4352
bS'716'
p4353
tp4354
Rp4355
g4103
sg8
(g9
(S'S11'
p4356
I0
I1
tp4357
Rp4358
(I3
S'|'
p4359
NNNI11
I1
I0
tp4360
bS'719+F09+G22'
p4361
tp4362
Rp4363
(dp4364
sg8
(g9
(S'S3'
p4365
I0
I1
tp4366
Rp4367
(I3
S'|'
p4368
NNNI3
I1
I0
tp4369
bS'R60'
p4370
tp4371
Rp4372
(dp4373
sg8
(g9
(S'S3'
p4374
I0
I1
tp4375
Rp4376
(I3
S'|'
p4377
NNNI3
I1
I0
tp4378
bS'R08'
p4379
tp4380
Rp4381
(dp4382
ssg188
(dp4383
g8
(g9
(S'S3'
p4384
I0
I1
tp4385
Rp4386
(I3
S'|'
p4387
NNNI3
I1
I0
tp4388
bS'J23'
p4389
tp4390
Rp4391
(dp4392
sg8
(g9
(S'S11'
p4393
I0
I1
tp4394
Rp4395
(I3
S'|'
p4396
NNNI11
I1
I0
tp4397
bS'A51+J27+L22'
p4398
tp4399
Rp4400
(dp4401
ssg197
(dp4402
g8
(g9
(S'S3'
p4403
I0
I1
tp4404
Rp4405
(I3
S'|'
p4406
NNNI3
I1
I0
tp4407
bS'J24'
p4408
tp4409
Rp4410
g4392
sg8
(g9
(S'S3'
p4411
I0
I1
tp4412
Rp4413
(I3
S'|'
p4414
NNNI3
I1
I0
tp4415
bS'J22'
p4416
tp4417
Rp4418
(dp4419
ssg206
(dp4420
g8
(g9
(S'S3'
p4421
I0
I1
tp4422
Rp4423
(I3
S'|'
p4424
NNNI3
I1
I0
tp4425
bS'J23'
p4426
tp4427
Rp4428
g4419
sg8
(g9
(S'S3'
p4429
I0
I1
tp4430
Rp4431
(I3
S'|'
p4432
NNNI3
I1
I0
tp4433
bS'J21'
p4434
tp4435
Rp4436
(dp4437
ssg215
(dp4438
g8
(g9
(S'S3'
p4439
I0
I1
tp4440
Rp4441
(I3
S'|'
p4442
NNNI3
I1
I0
tp4443
bS'J22'
p4444
tp4445
Rp4446
g4437
sg8
(g9
(S'S3'
p4447
I0
I1
tp4448
Rp4449
(I3
S'|'
p4450
NNNI3
I1
I0
tp4451
bS'J20'
p4452
tp4453
Rp4454
(dp4455
ssg224
(dp4456
g8
(g9
(S'S3'
p4457
I0
I1
tp4458
Rp4459
(I3
S'|'
p4460
NNNI3
I1
I0
tp4461
bS'J21'
p4462
tp4463
Rp4464
g4455
sg8
(g9
(S'S3'
p4465
I0
I1
tp4466
Rp4467
(I3
S'|'
p4468
NNNI3
I1
I0
tp4469
bS'J19'
p4470
tp4471
Rp4472
(dp4473
ssg233
(dp4474
g8
(g9
(S'S3'
p4475
I0
I1
tp4476
Rp4477
(I3
S'|'
p4478
NNNI3
I1
I0
tp4479
bS'J30'
p4480
tp4481
Rp4482
(dp4483
sg8
(g9
(S'S3'
p4484
I0
I1
tp4485
Rp4486
(I3
S'|'
p4487
NNNI3
I1
I0
tp4488
bS'J28'
p4489
tp4490
Rp4491
(dp4492
ssg242
(dp4493
g8
(g9
(S'S3'
p4494
I0
I1
tp4495
Rp4496
(I3
S'|'
p4497
NNNI3
I1
I0
tp4498
bS'J29'
p4499
tp4500
Rp4501
g4492
sg8
(g9
(S'S11'
p4502
I0
I1
tp4503
Rp4504
(I3
S'|'
p4505
NNNI11
I1
I0
tp4506
bS'A51+J27+L22'
p4507
tp4508
Rp4509
(dp4510
ssg251
(dp4511
g8
(g9
(S'S3'
p4512
I0
I1
tp4513
Rp4514
(I3
S'|'
p4515
NNNI3
I1
I0
tp4516
bS'F04'
p4517
tp4518
Rp4519
(dp4520
sg8
(g9
(S'S3'
p4521
I0
I1
tp4522
Rp4523
(I3
S'|'
p4524
NNNI3
I1
I0
tp4525
bS'F06'
p4526
tp4527
Rp4528
(dp4529
ssg260
(dp4530
g8
(g9
(S'S3'
p4531
I0
I1
tp4532
Rp4533
(I3
S'|'
p4534
NNNI3
I1
I0
tp4535
bS'F05'
p4536
tp4537
Rp4538
g4520
sg8
(g9
(S'S3'
p4539
I0
I1
tp4540
Rp4541
(I3
S'|'
p4542
NNNI3
I1
I0
tp4543
bS'F03'
p4544
tp4545
Rp4546
(dp4547
ssg269
(dp4548
g8
(g9
(S'S3'
p4549
I0
I1
tp4550
Rp4551
(I3
S'|'
p4552
NNNI3
I1
I0
tp4553
bS'F06'
p4554
tp4555
Rp4556
(dp4557
sg8
(g9
(S'S3'
p4558
I0
I1
tp4559
Rp4560
(I3
S'|'
p4561
NNNI3
I1
I0
tp4562
bS'G08'
p4563
tp4564
Rp4565
(dp4566
ssg278
(dp4567
g8
(g9
(S'S3'
p4568
I0
I1
tp4569
Rp4570
(I3
S'|'
p4571
NNNI3
I1
I0
tp4572
bS'F05'
p4573
tp4574
Rp4575
g4529
sg8
(g9
(S'S3'
p4576
I0
I1
tp4577
Rp4578
(I3
S'|'
p4579
NNNI3
I1
I0
tp4580
bS'F07'
p4581
tp4582
Rp4583
g4557
sg8
(g9
(S'S3'
p4584
I0
I1
tp4585
Rp4586
(I3
S'|'
p4587
NNNI3
I1
I0
tp4588
bS'G07'
p4589
tp4590
Rp4591
(dp4592
sg8
(g9
(S'S3'
p4593
I0
I1
tp4594
Rp4595
(I3
S'|'
p4596
NNNI3
I1
I0
tp4597
bS'G08'
p4598
tp4599
Rp4600
(dp4601
ssg287
(dp4602
g8
(g9
(S'S3'
p4603
I0
I1
tp4604
Rp4605
(I3
S'|'
p4606
NNNI3
I1
I0
tp4607
bS'F02'
p4608
tp4609
Rp4610
(dp4611
ssg296
(dp4612
g8
(g9
(S'S3'
p4613
I0
I1
tp4614
Rp4615
(I3
S'|'
p4616
NNNI3
I1
I0
tp4617
bS'A53'
p4618
tp4619
Rp4620
(dp4621
sg8
(g9
(S'S3'
p4622
I0
I1
tp4623
Rp4624
(I3
S'|'
p4625
NNNI3
I1
I0
tp4626
bS'A55'
p4627
tp4628
Rp4629
(dp4630
ssg305
(dp4631
g8
(g9
(S'S3'
p4632
I0
I1
tp4633
Rp4634
(I3
S'|'
p4635
NNNI3
I1
I0
tp4636
bS'F04'
p4637
tp4638
Rp4639
g4547
sg8
(g9
(S'S3'
p4640
I0
I1
tp4641
Rp4642
(I3
S'|'
p4643
NNNI3
I1
I0
tp4644
bS'F02'
p4645
tp4646
Rp4647
(dp4648
ssg314
(dp4649
g8
(g9
(S'S3'
p4650
I0
I1
tp4651
Rp4652
(I3
S'|'
p4653
NNNI3
I1
I0
tp4654
bS'F01'
p4655
tp4656
Rp4657
g4611
sg8
(g9
(S'S3'
p4658
I0
I1
tp4659
Rp4660
(I3
S'|'
p4661
NNNI3
I1
I0
tp4662
bS'F03'
p4663
tp4664
Rp4665
g4648
ssg323
(dp4666
g8
(g9
(S'S3'
p4667
I0
I1
tp4668
Rp4669
(I3
S'|'
p4670
NNNI3
I1
I0
tp4671
bS'A60'
p4672
tp4673
Rp4674
(dp4675
sg8
(g9
(S'S3'
p4676
I0
I1
tp4677
Rp4678
(I3
S'|'
p4679
NNNI3
I1
I0
tp4680
bS'A57'
p4681
tp4682
Rp4683
(dp4684
ssg332
(dp4685
g8
(g9
(S'S3'
p4686
I0
I1
tp4687
Rp4688
(I3
S'|'
p4689
NNNI3
I1
I0
tp4690
bS'M19'
p4691
tp4692
Rp4693
(dp4694
sg8
(g9
(S'S3'
p4695
I0
I1
tp4696
Rp4697
(I3
S'|'
p4698
NNNI3
I1
I0
tp4699
bS'F16'
p4700
tp4701
Rp4702
(dp4703
sg8
(g9
(S'S7'
p4704
I0
I1
tp4705
Rp4706
(I3
S'|'
p4707
NNNI7
I1
I0
tp4708
bS'637+D21'
p4709
tp4710
Rp4711
(dp4712
sg8
(g9
(S'S3'
p4713
I0
I1
tp4714
Rp4715
(I3
S'|'
p4716
NNNI3
I1
I0
tp4717
bS'F14'
p4718
tp4719
Rp4720
(dp4721
sg8
(g9
(S'S3'
p4722
I0
I1
tp4723
Rp4724
(I3
S'|'
p4725
NNNI3
I1
I0
tp4726
bS'M16'
p4727
tp4728
Rp4729
(dp4730
ssg341
(dp4731
g8
(g9
(S'S7'
p4732
I0
I1
tp4733
Rp4734
(I3
S'|'
p4735
NNNI7
I1
I0
tp4736
bS'D17+R17'
p4737
tp4738
Rp4739
g4247
sg8
(g9
(S'S3'
p4740
I0
I1
tp4741
Rp4742
(I3
S'|'
p4743
NNNI3
I1
I0
tp4744
bS'D15'
p4745
tp4746
Rp4747
(dp4748
sg8
(g9
(S'S11'
p4749
I0
I1
tp4750
Rp4751
(I3
S'|'
p4752
NNNI11
I1
I0
tp4753
bS'631+723+901'
p4754
tp4755
Rp4756
(dp4757
sg8
(g9
(S'S19'
p4758
I0
I1
tp4759
Rp4760
(I3
S'|'
p4761
NNNI19
I1
I0
tp4762
bS'127+725+902+A27+R16'
p4763
tp4764
Rp4765
(dp4766
ssg350
(dp4767
g8
(g9
(S'S3'
p4768
I0
I1
tp4769
Rp4770
(I3
S'|'
p4771
NNNI3
I1
I0
tp4772
bS'A15'
p4773
tp4774
Rp4775
(dp4776
sg8
(g9
(S'S3'
p4777
I0
I1
tp4778
Rp4779
(I3
S'|'
p4780
NNNI3
I1
I0
tp4781
bS'A14'
p4782
tp4783
Rp4784
(dp4785
sg8
(g9
(S'S7'
p4786
I0
I1
tp4787
Rp4788
(I3
S'|'
p4789
NNNI7
I1
I0
tp4790
bS'112+A09'
p4791
tp4792
Rp4793
(dp4794
sg8
(g9
(S'S3'
p4795
I0
I1
tp4796
Rp4797
(I3
S'|'
p4798
NNNI3
I1
I0
tp4799
bS'A11'
p4800
tp4801
Rp4802
(dp4803
sg8
(g9
(S'S3'
p4804
I0
I1
tp4805
Rp4806
(I3
S'|'
p4807
NNNI3
I1
I0
tp4808
bS'D12'
p4809
tp4810
Rp4811
(dp4812
ssg359
(dp4813
g8
(g9
(S'S3'
p4814
I0
I1
tp4815
Rp4816
(I3
S'|'
p4817
NNNI3
I1
I0
tp4818
bS'N10'
p4819
tp4820
Rp4821
(dp4822
sg8
(g9
(S'S3'
p4823
I0
I1
tp4824
Rp4825
(I3
S'|'
p4826
NNNI3
I1
I0
tp4827
bS'N08'
p4828
tp4829
Rp4830
(dp4831
ssg368
(dp4832
g8
(g9
(S'S3'
p4833
I0
I1
tp4834
Rp4835
(I3
S'|'
p4836
NNNI3
I1
I0
tp4837
bS'N07'
p4838
tp4839
Rp4840
(dp4841
sg8
(g9
(S'S3'
p4842
I0
I1
tp4843
Rp4844
(I3
S'|'
p4845
NNNI3
I1
I0
tp4846
bS'N09'
p4847
tp4848
Rp4849
g4831
ssg377
(dp4850
g8
(g9
(S'S7'
p4851
I0
I1
tp4852
Rp4853
(I3
S'|'
p4854
NNNI7
I1
I0
tp4855
bS'B16+N04'
p4856
tp4857
Rp4858
(dp4859
sg8
(g9
(S'S3'
p4860
I0
I1
tp4861
Rp4862
(I3
S'|'
p4863
NNNI3
I1
I0
tp4864
bS'N06'
p4865
tp4866
Rp4867
(dp4868
ssg386
(dp4869
g8
(g9
(S'S3'
p4870
I0
I1
tp4871
Rp4872
(I3
S'|'
p4873
NNNI3
I1
I0
tp4874
bS'N06'
p4875
tp4876
Rp4877
(dp4878
sg8
(g9
(S'S3'
p4879
I0
I1
tp4880
Rp4881
(I3
S'|'
p4882
NNNI3
I1
I0
tp4883
bS'N08'
p4884
tp4885
Rp4886
g4841
ssg395
(dp4887
g8
(g9
(S'S3'
p4888
I0
I1
tp4889
Rp4890
(I3
S'|'
p4891
NNNI3
I1
I0
tp4892
bS'N05'
p4893
tp4894
Rp4895
g4868
sg8
(g9
(S'S3'
p4896
I0
I1
tp4897
Rp4898
(I3
S'|'
p4899
NNNI3
I1
I0
tp4900
bS'N07'
p4901
tp4902
Rp4903
g4878
ssg404
(dp4904
g8
(g9
(S'S7'
p4905
I0
I1
tp4906
Rp4907
(I3
S'|'
p4908
NNNI7
I1
I0
tp4909
bS'B16+N04'
p4910
tp4911
Rp4912
(dp4913
sg8
(g9
(S'S3'
p4914
I0
I1
tp4915
Rp4916
(I3
S'|'
p4917
NNNI3
I1
I0
tp4918
bS'N02'
p4919
tp4920
Rp4921
(dp4922
ssg413
(dp4923
g8
(g9
(S'S3'
p4924
I0
I1
tp4925
Rp4926
(I3
S'|'
p4927
NNNI3
I1
I0
tp4928
bS'R41'
p4929
tp4930
Rp4931
(dp4932
sg8
(g9
(S'S3'
p4933
I0
I1
tp4934
Rp4935
(I3
S'|'
p4936
NNNI3
I1
I0
tp4937
bS'N03'
p4938
tp4939
Rp4940
g4922
ssg422
(dp4941
g8
(g9
(S'S3'
p4942
I0
I1
tp4943
Rp4944
(I3
S'|'
p4945
NNNI3
I1
I0
tp4946
bS'H11'
p4947
tp4948
Rp4949
(dp4950
sg8
(g9
(S'S3'
p4951
I0
I1
tp4952
Rp4953
(I3
S'|'
p4954
NNNI3
I1
I0
tp4955
bS'H09'
p4956
tp4957
Rp4958
(dp4959
ssg431
(dp4960
g8
(g9
(S'S3'
p4961
I0
I1
tp4962
Rp4963
(I3
S'|'
p4964
NNNI3
I1
I0
tp4965
bS'H10'
p4966
tp4967
Rp4968
g4950
ssg440
(dp4969
g8
(g9
(S'S3'
p4970
I0
I1
tp4971
Rp4972
(I3
S'|'
p4973
NNNI3
I1
I0
tp4974
bS'H13'
p4975
tp4976
Rp4977
(dp4978
sg8
(g9
(S'S3'
p4979
I0
I1
tp4980
Rp4981
(I3
S'|'
p4982
NNNI3
I1
I0
tp4983
bS'H04'
p4984
tp4985
Rp4986
(dp4987
ssg449
(dp4988
g8
(g9
(S'S3'
p4989
I0
I1
tp4990
Rp4991
(I3
S'|'
p4992
NNNI3
I1
I0
tp4993
bS'H12'
p4994
tp4995
Rp4996
g4978
sg8
(g9
(S'S3'
p4997
I0
I1
tp4998
Rp4999
(I3
S'|'
p5000
NNNI3
I1
I0
tp5001
bS'H14'
p5002
tp5003
Rp5004
(dp5005
ssg458
(dp5006
g8
(g9
(S'S3'
p5007
I0
I1
tp5008
Rp5009
(I3
S'|'
p5010
NNNI3
I1
I0
tp5011
bS'H13'
p5012
tp5013
Rp5014
g5005
sg8
(g9
(S'S3'
p5015
I0
I1
tp5016
Rp5017
(I3
S'|'
p5018
NNNI3
I1
I0
tp5019
bS'H15'
p5020
tp5021
Rp5022
(dp5023
ssg467
(dp5024
g8
(g9
(S'S3'
p5025
I0
I1
tp5026
Rp5027
(I3
S'|'
p5028
NNNI3
I1
I0
tp5029
bS'H14'
p5030
tp5031
Rp5032
g5023
ssg476
(dp5033
g8
(g9
(S'S15'
p5034
I0
I1
tp5035
Rp5036
(I3
S'|'
p5037
NNNI15
I1
I0
tp5038
bS'229+418+A38+M22'
p5039
tp5040
Rp5041
(dp5042
ssg485
(dp5043
g8
(g9
(S'S3'
p5044
I0
I1
tp5045
Rp5046
(I3
S'|'
p5047
NNNI3
I1
I0
tp5048
bS'109'
p5049
tp5050
Rp5051
(dp5052
sg8
(g9
(S'S3'
p5053
I0
I1
tp5054
Rp5055
(I3
S'|'
p5056
NNNI3
I1
I0
tp5057
bS'107'
p5058
tp5059
Rp5060
(dp5061
ssg494
(dp5062
g8
(g9
(S'S3'
p5063
I0
I1
tp5064
Rp5065
(I3
S'|'
p5066
NNNI3
I1
I0
tp5067
bS'108'
p5068
tp5069
Rp5070
g5052
sg8
(g9
(S'S3'
p5071
I0
I1
tp5072
Rp5073
(I3
S'|'
p5074
NNNI3
I1
I0
tp5075
bS'110'
p5076
tp5077
Rp5078
(dp5079
ssg503
(dp5080
g8
(g9
(S'S7'
p5081
I0
I1
tp5082
Rp5083
(I3
S'|'
p5084
NNNI7
I1
I0
tp5085
bS'A32+D20'
p5086
tp5087
Rp5088
(dp5089
sg8
(g9
(S'S3'
p5090
I0
I1
tp5091
Rp5092
(I3
S'|'
p5093
NNNI3
I1
I0
tp5094
bS'636'
p5095
tp5096
Rp5097
(dp5098
sg8
(g9
(S'S3'
p5099
I0
I1
tp5100
Rp5101
(I3
S'|'
p5102
NNNI3
I1
I0
tp5103
bS'638'
p5104
tp5105
Rp5106
(dp5107
sg8
(g9
(S'S3'
p5108
I0
I1
tp5109
Rp5110
(I3
S'|'
p5111
NNNI3
I1
I0
tp5112
bS'D22'
p5113
tp5114
Rp5115
(dp5116
sg8
(g9
(S'S7'
p5117
I0
I1
tp5118
Rp5119
(I3
S'|'
p5120
NNNI7
I1
I0
tp5121
bS'F15+M18'
p5122
tp5123
Rp5124
g4712
sg8
(g9
(S'S3'
p5125
I0
I1
tp5126
Rp5127
(I3
S'|'
p5128
NNNI3
I1
I0
tp5129
bS'F14'
p5130
tp5131
Rp5132
(dp5133
ssg512
(dp5134
g8
(g9
(S'S3'
p5135
I0
I1
tp5136
Rp5137
(I3
S'|'
p5138
NNNI3
I1
I0
tp5139
bS'101'
p5140
tp5141
Rp5142
(dp5143
sg8
(g9
(S'S3'
p5144
I0
I1
tp5145
Rp5146
(I3
S'|'
p5147
NNNI3
I1
I0
tp5148
bS'104'
p5149
tp5150
Rp5151
(dp5152
ssg521
(dp5153
g8
(g9
(S'S3'
p5154
I0
I1
tp5155
Rp5156
(I3
S'|'
p5157
NNNI3
I1
I0
tp5158
bS'103'
p5159
tp5160
Rp5161
g5143
ssg530
(dp5162
g8
(g9
(S'S3'
p5163
I0
I1
tp5164
Rp5165
(I3
S'|'
p5166
NNNI3
I1
I0
tp5167
bS'107'
p5168
tp5169
Rp5170
(dp5171
sg8
(g9
(S'S3'
p5172
I0
I1
tp5173
Rp5174
(I3
S'|'
p5175
NNNI3
I1
I0
tp5176
bS'104'
p5177
tp5178
Rp5179
(dp5180
ssg539
(dp5181
g8
(g9
(S'S3'
p5182
I0
I1
tp5183
Rp5184
(I3
S'|'
p5185
NNNI3
I1
I0
tp5186
bS'108'
p5187
tp5188
Rp5189
g5061
sg8
(g9
(S'S3'
p5190
I0
I1
tp5191
Rp5192
(I3
S'|'
p5193
NNNI3
I1
I0
tp5194
bS'106'
p5195
tp5196
Rp5197
g5171
ssg548
(dp5198
g8
(g9
(S'S3'
p5199
I0
I1
tp5200
Rp5201
(I3
S'|'
p5202
NNNI3
I1
I0
tp5203
bS'103'
p5204
tp5205
Rp5206
g5152
sg8
(g9
(S'S3'
p5207
I0
I1
tp5208
Rp5209
(I3
S'|'
p5210
NNNI3
I1
I0
tp5211
bS'106'
p5212
tp5213
Rp5214
g5180
ssg557
(dp5215
g8
(g9
(S'S7'
p5216
I0
I1
tp5217
Rp5218
(I3
S'|'
p5219
NNNI7
I1
I0
tp5220
bS'A45+S01'
p5221
tp5222
Rp5223
(dp5224
sg8
(g9
(S'S3'
p5225
I0
I1
tp5226
Rp5227
(I3
S'|'
p5228
NNNI3
I1
I0
tp5229
bS'A47'
p5230
tp5231
Rp5232
(dp5233
sg8
(g9
(S'S3'
p5234
I0
I1
tp5235
Rp5236
(I3
S'|'
p5237
NNNI3
I1
I0
tp5238
bS'A42'
p5239
tp5240
Rp5241
(dp5242
sg8
(g9
(S'S3'
p5243
I0
I1
tp5244
Rp5245
(I3
S'|'
p5246
NNNI3
I1
I0
tp5247
bS'A48'
p5248
tp5249
Rp5250
(dp5251
ssg566
(dp5252
g8
(g9
(S'S3'
p5253
I0
I1
tp5254
Rp5255
(I3
S'|'
p5256
NNNI3
I1
I0
tp5257
bS'245'
p5258
tp5259
Rp5260
(dp5261
sg8
(g9
(S'S3'
p5262
I0
I1
tp5263
Rp5264
(I3
S'|'
p5265
NNNI3
I1
I0
tp5266
bS'243'
p5267
tp5268
Rp5269
(dp5270
ssg575
(dp5271
g8
(g9
(S'S3'
p5272
I0
I1
tp5273
Rp5274
(I3
S'|'
p5275
NNNI3
I1
I0
tp5276
bS'246'
p5277
tp5278
Rp5279
(dp5280
ssg584
(dp5281
g8
(g9
(S'S3'
p5282
I0
I1
tp5283
Rp5284
(I3
S'|'
p5285
NNNI3
I1
I0
tp5286
bS'A46'
p5287
tp5288
Rp5289
g5242
sg8
(g9
(S'S3'
p5290
I0
I1
tp5291
Rp5292
(I3
S'|'
p5293
NNNI3
I1
I0
tp5294
bS'F20'
p5295
tp5296
Rp5297
(dp5298
sg8
(g9
(S'S3'
p5299
I0
I1
tp5300
Rp5301
(I3
S'|'
p5302
NNNI3
I1
I0
tp5303
bS'A43'
p5304
tp5305
Rp5306
(dp5307
sg8
(g9
(S'S3'
p5308
I0
I1
tp5309
Rp5310
(I3
S'|'
p5311
NNNI3
I1
I0
tp5312
bS'G36'
p5313
tp5314
Rp5315
(dp5316
sg8
(g9
(S'S3'
p5317
I0
I1
tp5318
Rp5319
(I3
S'|'
p5320
NNNI3
I1
I0
tp5321
bS'A41'
p5322
tp5323
Rp5324
(dp5325
ssg593
(dp5326
g8
(g9
(S'S3'
p5327
I0
I1
tp5328
Rp5329
(I3
S'|'
p5330
NNNI3
I1
I0
tp5331
bS'244'
p5332
tp5333
Rp5334
g5270
sg8
(g9
(S'S3'
p5335
I0
I1
tp5336
Rp5337
(I3
S'|'
p5338
NNNI3
I1
I0
tp5339
bS'242'
p5340
tp5341
Rp5342
(dp5343
ssg602
(dp5344
g8
(g9
(S'S3'
p5345
I0
I1
tp5346
Rp5347
(I3
S'|'
p5348
NNNI3
I1
I0
tp5349
bS'F18'
p5350
tp5351
Rp5352
(dp5353
sg8
(g9
(S'S3'
p5354
I0
I1
tp5355
Rp5356
(I3
S'|'
p5357
NNNI3
I1
I0
tp5358
bS'F20'
p5359
tp5360
Rp5361
(dp5362
sg8
(g9
(S'S3'
p5363
I0
I1
tp5364
Rp5365
(I3
S'|'
p5366
NNNI3
I1
I0
tp5367
bS'A42'
p5368
tp5369
Rp5370
g5325
sg8
(g9
(S'S3'
p5371
I0
I1
tp5372
Rp5373
(I3
S'|'
p5374
NNNI3
I1
I0
tp5375
bS'A40'
p5376
tp5377
Rp5378
(dp5379
ssg611
(dp5380
g8
(g9
(S'S3'
p5381
I0
I1
tp5382
Rp5383
(I3
S'|'
p5384
NNNI3
I1
I0
tp5385
bS'250'
p5386
tp5387
Rp5388
(dp5389
sg8
(g9
(S'S3'
p5390
I0
I1
tp5391
Rp5392
(I3
S'|'
p5393
NNNI3
I1
I0
tp5394
bS'248'
p5395
tp5396
Rp5397
(dp5398
ssg620
(dp5399
g8
(g9
(S'S7'
p5400
I0
I1
tp5401
Rp5402
(I3
S'|'
p5403
NNNI7
I1
I0
tp5404
bS'F15+M18'
p5405
tp5406
Rp5407
g4721
sg8
(g9
(S'S7'
p5408
I0
I1
tp5409
Rp5410
(I3
S'|'
p5411
NNNI7
I1
I0
tp5412
bS'637+D21'
p5413
tp5414
Rp5415
g5133
ssg629
(dp5416
g8
(g9
(S'S3'
p5417
I0
I1
tp5418
Rp5419
(I3
S'|'
p5420
NNNI3
I1
I0
tp5421
bS'G20'
p5422
tp5423
Rp5424
g3849
sg8
(g9
(S'S3'
p5425
I0
I1
tp5426
Rp5427
(I3
S'|'
p5428
NNNI3
I1
I0
tp5429
bS'G18'
p5430
tp5431
Rp5432
(dp5433
ssg638
(dp5434
g8
(g9
(S'S3'
p5435
I0
I1
tp5436
Rp5437
(I3
S'|'
p5438
NNNI3
I1
I0
tp5439
bS'G16'
p5440
tp5441
Rp5442
(dp5443
sg8
(g9
(S'S3'
p5444
I0
I1
tp5445
Rp5446
(I3
S'|'
p5447
NNNI3
I1
I0
tp5448
bS'G19'
p5449
tp5450
Rp5451
g5433
ssg647
(dp5452
g8
(g9
(S'S3'
p5453
I0
I1
tp5454
Rp5455
(I3
S'|'
p5456
NNNI3
I1
I0
tp5457
bS'G15'
p5458
tp5459
Rp5460
(dp5461
sg8
(g9
(S'S3'
p5462
I0
I1
tp5463
Rp5464
(I3
S'|'
p5465
NNNI3
I1
I0
tp5466
bS'G18'
p5467
tp5468
Rp5469
g5443
ssg656
(dp5470
g8
(g9
(S'S3'
p5471
I0
I1
tp5472
Rp5473
(I3
S'|'
p5474
NNNI3
I1
I0
tp5475
bS'G16'
p5476
tp5477
Rp5478
g5461
sg8
(g9
(S'S7'
p5479
I0
I1
tp5480
Rp5481
(I3
S'|'
p5482
NNNI7
I1
I0
tp5483
bS'710+G14'
p5484
tp5485
Rp5486
(dp5487
ssg665
(dp5488
g8
(g9
(S'S3'
p5489
I0
I1
tp5490
Rp5491
(I3
S'|'
p5492
NNNI3
I1
I0
tp5493
bS'G12'
p5494
tp5495
Rp5496
(dp5497
sg8
(g9
(S'S7'
p5498
I0
I1
tp5499
Rp5500
(I3
S'|'
p5501
NNNI7
I1
I0
tp5502
bS'710+G14'
p5503
tp5504
Rp5505
(dp5506
ssg674
(dp5507
g8
(g9
(S'S3'
p5508
I0
I1
tp5509
Rp5510
(I3
S'|'
p5511
NNNI3
I1
I0
tp5512
bS'G13'
p5513
tp5514
Rp5515
g5497
sg8
(g9
(S'S3'
p5516
I0
I1
tp5517
Rp5518
(I3
S'|'
p5519
NNNI3
I1
I0
tp5520
bS'G11'
p5521
tp5522
Rp5523
(dp5524
ssg683
(dp5525
g8
(g9
(S'S3'
p5526
I0
I1
tp5527
Rp5528
(I3
S'|'
p5529
NNNI3
I1
I0
tp5530
bS'G12'
p5531
tp5532
Rp5533
g5524
sg8
(g9
(S'S3'
p5534
I0
I1
tp5535
Rp5536
(I3
S'|'
p5537
NNNI3
I1
I0
tp5538
bS'G10'
p5539
tp5540
Rp5541
(dp5542
ssg692
(dp5543
g8
(g9
(S'S3'
p5544
I0
I1
tp5545
Rp5546
(I3
S'|'
p5547
NNNI3
I1
I0
tp5548
bS'G09'
p5549
tp5550
Rp5551
(dp5552
sg8
(g9
(S'S3'
p5553
I0
I1
tp5554
Rp5555
(I3
S'|'
p5556
NNNI3
I1
I0
tp5557
bS'G11'
p5558
tp5559
Rp5560
g5542
ssg701
(dp5561
g8
(g9
(S'S3'
p5562
I0
I1
tp5563
Rp5564
(I3
S'|'
p5565
NNNI3
I1
I0
tp5566
bS'D37'
p5567
tp5568
Rp5569
(dp5570
sg8
(g9
(S'S3'
p5571
I0
I1
tp5572
Rp5573
(I3
S'|'
p5574
NNNI3
I1
I0
tp5575
bS'D39'
p5576
tp5577
Rp5578
(dp5579
ssg710
(dp5580
g8
(g9
(S'S3'
p5581
I0
I1
tp5582
Rp5583
(I3
S'|'
p5584
NNNI3
I1
I0
tp5585
bS'D40'
p5586
tp5587
Rp5588
(dp5589
sg8
(g9
(S'S3'
p5590
I0
I1
tp5591
Rp5592
(I3
S'|'
p5593
NNNI3
I1
I0
tp5594
bS'D35'
p5595
tp5596
Rp5597
(dp5598
sg8
(g9
(S'S3'
p5599
I0
I1
tp5600
Rp5601
(I3
S'|'
p5602
NNNI3
I1
I0
tp5603
bS'D38'
p5604
tp5605
Rp5606
g5579
ssg719
(dp5607
g8
(g9
(S'S3'
p5608
I0
I1
tp5609
Rp5610
(I3
S'|'
p5611
NNNI3
I1
I0
tp5612
bS'D35'
p5613
tp5614
Rp5615
(dp5616
sg8
(g9
(S'S3'
p5617
I0
I1
tp5618
Rp5619
(I3
S'|'
p5620
NNNI3
I1
I0
tp5621
bS'D38'
p5622
tp5623
Rp5624
g5570
ssg728
(dp5625
g8
(g9
(S'S3'
p5626
I0
I1
tp5627
Rp5628
(I3
S'|'
p5629
NNNI3
I1
I0
tp5630
bS'D35'
p5631
tp5632
Rp5633
(dp5634
sg8
(g9
(S'S3'
p5635
I0
I1
tp5636
Rp5637
(I3
S'|'
p5638
NNNI3
I1
I0
tp5639
bS'D33'
p5640
tp5641
Rp5642
(dp5643
ssg737
(dp5644
g8
(g9
(S'S3'
p5645
I0
I1
tp5646
Rp5647
(I3
S'|'
p5648
NNNI3
I1
I0
tp5649
bS'D37'
p5650
tp5651
Rp5652
g5616
sg8
(g9
(S'S3'
p5653
I0
I1
tp5654
Rp5655
(I3
S'|'
p5656
NNNI3
I1
I0
tp5657
bS'D34'
p5658
tp5659
Rp5660
g5634
sg8
(g9
(S'S3'
p5661
I0
I1
tp5662
Rp5663
(I3
S'|'
p5664
NNNI3
I1
I0
tp5665
bS'D31'
p5666
tp5667
Rp5668
(dp5669
sg8
(g9
(S'S3'
p5670
I0
I1
tp5671
Rp5672
(I3
S'|'
p5673
NNNI3
I1
I0
tp5674
bS'D39'
p5675
tp5676
Rp5677
g5598
ssg746
(dp5678
g8
(g9
(S'S3'
p5679
I0
I1
tp5680
Rp5681
(I3
S'|'
p5682
NNNI3
I1
I0
tp5683
bS'D33'
p5684
tp5685
Rp5686
(dp5687
sg8
(g9
(S'S3'
p5688
I0
I1
tp5689
Rp5690
(I3
S'|'
p5691
NNNI3
I1
I0
tp5692
bS'D31'
p5693
tp5694
Rp5695
(dp5696
ssg755
(dp5697
g8
(g9
(S'S3'
p5698
I0
I1
tp5699
Rp5700
(I3
S'|'
p5701
NNNI3
I1
I0
tp5702
bS'D34'
p5703
tp5704
Rp5705
g5643
sg8
(g9
(S'S3'
p5706
I0
I1
tp5707
Rp5708
(I3
S'|'
p5709
NNNI3
I1
I0
tp5710
bS'D32'
p5711
tp5712
Rp5713
g5687
ssg764
(dp5714
g8
(g9
(S'S3'
p5715
I0
I1
tp5716
Rp5717
(I3
S'|'
p5718
NNNI3
I1
I0
tp5719
bS'D29'
p5720
tp5721
Rp5722
(dp5723
sg8
(g9
(S'S3'
p5724
I0
I1
tp5725
Rp5726
(I3
S'|'
p5727
NNNI3
I1
I0
tp5728
bS'D31'
p5729
tp5730
Rp5731
(dp5732
ssg773
(dp5733
g8
(g9
(S'S3'
p5734
I0
I1
tp5735
Rp5736
(I3
S'|'
p5737
NNNI3
I1
I0
tp5738
bS'D28'
p5739
tp5740
Rp5741
(dp5742
sg8
(g9
(S'S3'
p5743
I0
I1
tp5744
Rp5745
(I3
S'|'
p5746
NNNI3
I1
I0
tp5747
bS'D35'
p5748
tp5749
Rp5750
g5669
sg8
(g9
(S'S3'
p5751
I0
I1
tp5752
Rp5753
(I3
S'|'
p5754
NNNI3
I1
I0
tp5755
bS'D32'
p5756
tp5757
Rp5758
g5696
sg8
(g9
(S'S3'
p5759
I0
I1
tp5760
Rp5761
(I3
S'|'
p5762
NNNI3
I1
I0
tp5763
bS'D30'
p5764
tp5765
Rp5766
g5732
ssg782
(dp5767
g8
(g9
(S'S7'
p5768
I0
I1
tp5769
Rp5770
(I3
S'|'
p5771
NNNI7
I1
I0
tp5772
bS'239+S04'
p5773
tp5774
Rp5775
(dp5776
sg8
(g9
(S'S3'
p5777
I0
I1
tp5778
Rp5779
(I3
S'|'
p5780
NNNI3
I1
I0
tp5781
bS'237'
p5782
tp5783
Rp5784
(dp5785
ssg791
(dp5786
g8
(g9
(S'S11'
p5787
I0
I1
tp5788
Rp5789
(I3
S'|'
p5790
NNNI11
I1
I0
tp5791
bS'235+D24+R31'
p5792
tp5793
Rp5794
(dp5795
sg8
(g9
(S'S11'
p5796
I0
I1
tp5797
Rp5798
(I3
S'|'
p5799
NNNI11
I1
I0
tp5800
bS'232+423+R28'
p5801
tp5802
Rp5803
(dp5804
sg8
(g9
(S'S3'
p5805
I0
I1
tp5806
Rp5807
(I3
S'|'
p5808
NNNI3
I1
I0
tp5809
bS'233'
p5810
tp5811
Rp5812
(dp5813
ssg800
(dp5814
g8
(g9
(S'S11'
p5815
I0
I1
tp5816
Rp5817
(I3
S'|'
p5818
NNNI11
I1
I0
tp5819
bS'235+D24+R31'
p5820
tp5821
Rp5822
(dp5823
sg8
(g9
(S'S3'
p5824
I0
I1
tp5825
Rp5826
(I3
S'|'
p5827
NNNI3
I1
I0
tp5828
bS'237'
p5829
tp5830
Rp5831
(dp5832
ssg809
(dp5833
g8
(g9
(S'S3'
p5834
I0
I1
tp5835
Rp5836
(I3
S'|'
p5837
NNNI3
I1
I0
tp5838
bS'236'
p5839
tp5840
Rp5841
g5832
sg8
(g9
(S'S3'
p5842
I0
I1
tp5843
Rp5844
(I3
S'|'
p5845
NNNI3
I1
I0
tp5846
bS'238'
p5847
tp5848
Rp5849
g5785
ssg818
(dp5850
g8
(g9
(S'S15'
p5851
I0
I1
tp5852
Rp5853
(I3
S'|'
p5854
NNNI15
I1
I0
tp5855
bS'229+418+A38+M22'
p5856
tp5857
Rp5858
(dp5859
sg8
(g9
(S'S3'
p5860
I0
I1
tp5861
Rp5862
(I3
S'|'
p5863
NNNI3
I1
I0
tp5864
bS'231'
p5865
tp5866
Rp5867
(dp5868
ssg827
(dp5869
g8
(g9
(S'S11'
p5870
I0
I1
tp5871
Rp5872
(I3
S'|'
p5873
NNNI11
I1
I0
tp5874
bS'232+423+R28'
p5875
tp5876
Rp5877
(dp5878
sg8
(g9
(S'S3'
p5879
I0
I1
tp5880
Rp5881
(I3
S'|'
p5882
NNNI3
I1
I0
tp5883
bS'230'
p5884
tp5885
Rp5886
g5868
ssg836
(dp5887
g8
(g9
(S'S3'
p5888
I0
I1
tp5889
Rp5890
(I3
S'|'
p5891
NNNI3
I1
I0
tp5892
bS'234'
p5893
tp5894
Rp5895
g5813
sg8
(g9
(S'S11'
p5896
I0
I1
tp5897
Rp5898
(I3
S'|'
p5899
NNNI11
I1
I0
tp5900
bS'232+423+R28'
p5901
tp5902
Rp5903
(dp5904
ssg845
(dp5905
g8
(g9
(S'S3'
p5906
I0
I1
tp5907
Rp5908
(I3
S'|'
p5909
NNNI3
I1
I0
tp5910
bS'253'
p5911
tp5912
Rp5913
(dp5914
sg8
(g9
(S'S3'
p5915
I0
I1
tp5916
Rp5917
(I3
S'|'
p5918
NNNI3
I1
I0
tp5919
bS'L25'
p5920
tp5921
Rp5922
(dp5923
sg8
(g9
(S'S3'
p5924
I0
I1
tp5925
Rp5926
(I3
S'|'
p5927
NNNI3
I1
I0
tp5928
bS'L27'
p5929
tp5930
Rp5931
(dp5932
sg8
(g9
(S'S3'
p5933
I0
I1
tp5934
Rp5935
(I3
S'|'
p5936
NNNI3
I1
I0
tp5937
bS'255'
p5938
tp5939
Rp5940
(dp5941
ssg854
(dp5942
g8
(g9
(S'S3'
p5943
I0
I1
tp5944
Rp5945
(I3
S'|'
p5946
NNNI3
I1
I0
tp5947
bS'619'
p5948
tp5949
Rp5950
(dp5951
sg8
(g9
(S'S3'
p5952
I0
I1
tp5953
Rp5954
(I3
S'|'
p5955
NNNI3
I1
I0
tp5956
bS'617'
p5957
tp5958
Rp5959
(dp5960
ssg863
(dp5961
g8
(g9
(S'S3'
p5962
I0
I1
tp5963
Rp5964
(I3
S'|'
p5965
NNNI3
I1
I0
tp5966
bS'613'
p5967
tp5968
Rp5969
(dp5970
sg8
(g9
(S'S3'
p5971
I0
I1
tp5972
Rp5973
(I3
S'|'
p5974
NNNI3
I1
I0
tp5975
bS'621'
p5976
tp5977
Rp5978
(dp5979
sg8
(g9
(S'S3'
p5980
I0
I1
tp5981
Rp5982
(I3
S'|'
p5983
NNNI3
I1
I0
tp5984
bS'618'
p5985
tp5986
Rp5987
g5951
ssg872
(dp5988
g8
(g9
(S'S3'
p5989
I0
I1
tp5990
Rp5991
(I3
S'|'
p5992
NNNI3
I1
I0
tp5993
bS'139'
p5994
tp5995
Rp5996
(dp5997
ssg881
(dp5998
g8
(g9
(S'S3'
p5999
I0
I1
tp6000
Rp6001
(I3
S'|'
p6002
NNNI3
I1
I0
tp6003
bS'613'
p6004
tp6005
Rp6006
(dp6007
sg8
(g9
(S'S3'
p6008
I0
I1
tp6009
Rp6010
(I3
S'|'
p6011
NNNI3
I1
I0
tp6012
bS'611'
p6013
tp6014
Rp6015
(dp6016
ssg890
(dp6017
g8
(g9
(S'S3'
p6018
I0
I1
tp6019
Rp6020
(I3
S'|'
p6021
NNNI3
I1
I0
tp6022
bS'612'
p6023
tp6024
Rp6025
g6007
sg8
(g9
(S'S3'
p6026
I0
I1
tp6027
Rp6028
(I3
S'|'
p6029
NNNI3
I1
I0
tp6030
bS'619'
p6031
tp6032
Rp6033
g5970
sg8
(g9
(S'S3'
p6034
I0
I1
tp6035
Rp6036
(I3
S'|'
p6037
NNNI3
I1
I0
tp6038
bS'608'
p6039
tp6040
Rp6041
(dp6042
sg8
(g9
(S'S3'
p6043
I0
I1
tp6044
Rp6045
(I3
S'|'
p6046
NNNI3
I1
I0
tp6047
bS'614'
p6048
tp6049
Rp6050
(dp6051
ssg899
(dp6052
g8
(g9
(S'S3'
p6053
I0
I1
tp6054
Rp6055
(I3
S'|'
p6056
NNNI3
I1
I0
tp6057
bS'611'
p6058
tp6059
Rp6060
(dp6061
sg8
(g9
(S'S3'
p6062
I0
I1
tp6063
Rp6064
(I3
S'|'
p6065
NNNI3
I1
I0
tp6066
bS'609'
p6067
tp6068
Rp6069
(dp6070
ssg908
(dp6071
g8
(g9
(S'S3'
p6072
I0
I1
tp6073
Rp6074
(I3
S'|'
p6075
NNNI3
I1
I0
tp6076
bS'612'
p6077
tp6078
Rp6079
g6016
sg8
(g9
(S'S3'
p6080
I0
I1
tp6081
Rp6082
(I3
S'|'
p6083
NNNI3
I1
I0
tp6084
bS'610'
p6085
tp6086
Rp6087
g6061
ssg917
(dp6088
g8
(g9
(S'S3'
p6089
I0
I1
tp6090
Rp6091
(I3
S'|'
p6092
NNNI3
I1
I0
tp6093
bS'617'
p6094
tp6095
Rp6096
(dp6097
sg8
(g9
(S'S3'
p6098
I0
I1
tp6099
Rp6100
(I3
S'|'
p6101
NNNI3
I1
I0
tp6102
bS'615'
p6103
tp6104
Rp6105
(dp6106
ssg926
(dp6107
g8
(g9
(S'S3'
p6108
I0
I1
tp6109
Rp6110
(I3
S'|'
p6111
NNNI3
I1
I0
tp6112
bS'618'
p6113
tp6114
Rp6115
g5960
sg8
(g9
(S'S3'
p6116
I0
I1
tp6117
Rp6118
(I3
S'|'
p6119
NNNI3
I1
I0
tp6120
bS'616'
p6121
tp6122
Rp6123
g6097
ssg935
(dp6124
g8
(g9
(S'S3'
p6125
I0
I1
tp6126
Rp6127
(I3
S'|'
p6128
NNNI3
I1
I0
tp6129
bS'613'
p6130
tp6131
Rp6132
g6051
sg8
(g9
(S'S3'
p6133
I0
I1
tp6134
Rp6135
(I3
S'|'
p6136
NNNI3
I1
I0
tp6137
bS'615'
p6138
tp6139
Rp6140
(dp6141
ssg944
(dp6142
g8
(g9
(S'S3'
p6143
I0
I1
tp6144
Rp6145
(I3
S'|'
p6146
NNNI3
I1
I0
tp6147
bS'616'
p6148
tp6149
Rp6150
g6106
sg8
(g9
(S'S3'
p6151
I0
I1
tp6152
Rp6153
(I3
S'|'
p6154
NNNI3
I1
I0
tp6155
bS'614'
p6156
tp6157
Rp6158
g6141
ssg953
(dp6159
g8
(g9
(S'S3'
p6160
I0
I1
tp6161
Rp6162
(I3
S'|'
p6163
NNNI3
I1
I0
tp6164
bS'D42'
p6165
tp6166
Rp6167
(dp6168
sg8
(g9
(S'S3'
p6169
I0
I1
tp6170
Rp6171
(I3
S'|'
p6172
NNNI3
I1
I0
tp6173
bS'N10'
p6174
tp6175
Rp6176
(dp6177
sg8
(g9
(S'S3'
p6178
I0
I1
tp6179
Rp6180
(I3
S'|'
p6181
NNNI3
I1
I0
tp6182
bS'B23'
p6183
tp6184
Rp6185
g4275
ssg962
(dp6186
g8
(g9
(S'S3'
p6187
I0
I1
tp6188
Rp6189
(I3
S'|'
p6190
NNNI3
I1
I0
tp6191
bS'D43'
p6192
tp6193
Rp6194
g6168
sg8
(g9
(S'S3'
p6195
I0
I1
tp6196
Rp6197
(I3
S'|'
p6198
NNNI3
I1
I0
tp6199
bS'F39'
p6200
tp6201
Rp6202
(dp6203
sg8
(g9
(S'S3'
p6204
I0
I1
tp6205
Rp6206
(I3
S'|'
p6207
NNNI3
I1
I0
tp6208
bS'D41'
p6209
tp6210
Rp6211
(dp6212
ssg971
(dp6213
g8
(g9
(S'S3'
p6214
I0
I1
tp6215
Rp6216
(I3
S'|'
p6217
NNNI3
I1
I0
tp6218
bS'D42'
p6219
tp6220
Rp6221
g6212
sg8
(g9
(S'S3'
p6222
I0
I1
tp6223
Rp6224
(I3
S'|'
p6225
NNNI3
I1
I0
tp6226
bS'D40'
p6227
tp6228
Rp6229
(dp6230
ssg980
(dp6231
g8
(g9
(S'S3'
p6232
I0
I1
tp6233
Rp6234
(I3
S'|'
p6235
NNNI3
I1
I0
tp6236
bS'D41'
p6237
tp6238
Rp6239
g6230
sg8
(g9
(S'S3'
p6240
I0
I1
tp6241
Rp6242
(I3
S'|'
p6243
NNNI3
I1
I0
tp6244
bS'D39'
p6245
tp6246
Rp6247
g5589
ssg989
(dp6248
g8
(g9
(S'S3'
p6249
I0
I1
tp6250
Rp6251
(I3
S'|'
p6252
NNNI3
I1
I0
tp6253
bS'A03'
p6254
tp6255
Rp6256
(dp6257
ssg998
(dp6258
g8
(g9
(S'S3'
p6259
I0
I1
tp6260
Rp6261
(I3
S'|'
p6262
NNNI3
I1
I0
tp6263
bS'A02'
p6264
tp6265
Rp6266
g6257
sg8
(g9
(S'S3'
p6267
I0
I1
tp6268
Rp6269
(I3
S'|'
p6270
NNNI3
I1
I0
tp6271
bS'A05'
p6272
tp6273
Rp6274
(dp6275
ssg1007
(dp6276
g8
(g9
(S'S3'
p6277
I0
I1
tp6278
Rp6279
(I3
S'|'
p6280
NNNI3
I1
I0
tp6281
bS'A07'
p6282
tp6283
Rp6284
(dp6285
sg8
(g9
(S'S3'
p6286
I0
I1
tp6287
Rp6288
(I3
S'|'
p6289
NNNI3
I1
I0
tp6290
bS'A05'
p6291
tp6292
Rp6293
(dp6294
ssg1016
(dp6295
g8
(g9
(S'S7'
p6296
I0
I1
tp6297
Rp6298
(I3
S'|'
p6299
NNNI7
I1
I0
tp6300
bS'112+A09'
p6301
tp6302
Rp6303
(dp6304
sg8
(g9
(S'S3'
p6305
I0
I1
tp6306
Rp6307
(I3
S'|'
p6308
NNNI3
I1
I0
tp6309
bS'A06'
p6310
tp6311
Rp6312
g6285
ssg1025
(dp6313
g8
(g9
(S'S3'
p6314
I0
I1
tp6315
Rp6316
(I3
S'|'
p6317
NNNI3
I1
I0
tp6318
bS'A03'
p6319
tp6320
Rp6321
g6275
sg8
(g9
(S'S3'
p6322
I0
I1
tp6323
Rp6324
(I3
S'|'
p6325
NNNI3
I1
I0
tp6326
bS'A06'
p6327
tp6328
Rp6329
g6294
ssg1034
(dp6330
g8
(g9
(S'S11'
p6331
I0
I1
tp6332
Rp6333
(I3
S'|'
p6334
NNNI11
I1
I0
tp6335
bS'132+D19+L02'
p6336
tp6337
Rp6338
(dp6339
sg8
(g9
(S'S3'
p6340
I0
I1
tp6341
Rp6342
(I3
S'|'
p6343
NNNI3
I1
I0
tp6344
bS'134'
p6345
tp6346
Rp6347
(dp6348
ssg1043
(dp6349
g8
(g9
(S'S3'
p6350
I0
I1
tp6351
Rp6352
(I3
S'|'
p6353
NNNI3
I1
I0
tp6354
bS'130'
p6355
tp6356
Rp6357
(dp6358
sg8
(g9
(S'S11'
p6359
I0
I1
tp6360
Rp6361
(I3
S'|'
p6362
NNNI11
I1
I0
tp6363
bS'132+D19+L02'
p6364
tp6365
Rp6366
(dp6367
ssg1052
(dp6368
g8
(g9
(S'S3'
p6369
I0
I1
tp6370
Rp6371
(I3
S'|'
p6372
NNNI3
I1
I0
tp6373
bS'129'
p6374
tp6375
Rp6376
(dp6377
sg8
(g9
(S'S3'
p6378
I0
I1
tp6379
Rp6380
(I3
S'|'
p6381
NNNI3
I1
I0
tp6382
bS'131'
p6383
tp6384
Rp6385
g6358
ssg1061
(dp6386
g8
(g9
(S'S11'
p6387
I0
I1
tp6388
Rp6389
(I3
S'|'
p6390
NNNI11
I1
I0
tp6391
bS'228+A36+E01'
p6392
tp6393
Rp6394
(dp6395
sg8
(g9
(S'S3'
p6396
I0
I1
tp6397
Rp6398
(I3
S'|'
p6399
NNNI3
I1
I0
tp6400
bS'138'
p6401
tp6402
Rp6403
(dp6404
sg8
(g9
(S'S11'
p6405
I0
I1
tp6406
Rp6407
(I3
S'|'
p6408
NNNI11
I1
I0
tp6409
bS'132+D19+L02'
p6410
tp6411
Rp6412
(dp6413
sg8
(g9
(S'S3'
p6414
I0
I1
tp6415
Rp6416
(I3
S'|'
p6417
NNNI3
I1
I0
tp6418
bS'136'
p6419
tp6420
Rp6421
(dp6422
ssg1070
(dp6423
g8
(g9
(S'S3'
p6424
I0
I1
tp6425
Rp6426
(I3
S'|'
p6427
NNNI3
I1
I0
tp6428
bS'137'
p6429
tp6430
Rp6431
g6422
sg8
(g9
(S'S3'
p6432
I0
I1
tp6433
Rp6434
(I3
S'|'
p6435
NNNI3
I1
I0
tp6436
bS'135'
p6437
tp6438
Rp6439
(dp6440
ssg1079
(dp6441
g8
(g9
(S'S3'
p6442
I0
I1
tp6443
Rp6444
(I3
S'|'
p6445
NNNI3
I1
I0
tp6446
bS'136'
p6447
tp6448
Rp6449
g6440
sg8
(g9
(S'S3'
p6450
I0
I1
tp6451
Rp6452
(I3
S'|'
p6453
NNNI3
I1
I0
tp6454
bS'134'
p6455
tp6456
Rp6457
(dp6458
ssg1088
(dp6459
g8
(g9
(S'S3'
p6460
I0
I1
tp6461
Rp6462
(I3
S'|'
p6463
NNNI3
I1
I0
tp6464
bS'133'
p6465
tp6466
Rp6467
g6348
sg8
(g9
(S'S3'
p6468
I0
I1
tp6469
Rp6470
(I3
S'|'
p6471
NNNI3
I1
I0
tp6472
bS'135'
p6473
tp6474
Rp6475
g6458
ssg1097
(dp6476
g8
(g9
(S'S3'
p6477
I0
I1
tp6478
Rp6479
(I3
S'|'
p6480
NNNI3
I1
I0
tp6481
bS'138'
p6482
tp6483
Rp6484
(dp6485
sg8
(g9
(S'S3'
p6486
I0
I1
tp6487
Rp6488
(I3
S'|'
p6489
NNNI3
I1
I0
tp6490
bS'142'
p6491
tp6492
Rp6493
g5997
ssg1106
(dp6494
g8
(g9
(S'S3'
p6495
I0
I1
tp6496
Rp6497
(I3
S'|'
p6498
NNNI3
I1
I0
tp6499
bS'139'
p6500
tp6501
Rp6502
g6485
sg8
(g9
(S'S3'
p6503
I0
I1
tp6504
Rp6505
(I3
S'|'
p6506
NNNI3
I1
I0
tp6507
bS'137'
p6508
tp6509
Rp6510
g6404
ssg1115
(dp6511
g8
(g9
(S'S15'
p6512
I0
I1
tp6513
Rp6514
(I3
S'|'
p6515
NNNI15
I1
I0
tp6516
bS'229+418+A38+M22'
p6517
tp6518
Rp6519
(dp6520
sg8
(g9
(S'S15'
p6521
I0
I1
tp6522
Rp6523
(I3
S'|'
p6524
NNNI15
I1
I0
tp6525
bS'639+M20+Q01+R23'
p6526
tp6527
Rp6528
(dp6529
sg8
(g9
(S'S11'
p6530
I0
I1
tp6531
Rp6532
(I3
S'|'
p6533
NNNI11
I1
I0
tp6534
bS'635+L03+R20'
p6535
tp6536
Rp6537
g4012
ssg1124
(dp6538
g8
(g9
(S'S3'
p6539
I0
I1
tp6540
Rp6541
(I3
S'|'
p6542
NNNI3
I1
I0
tp6543
bS'R15'
p6544
tp6545
Rp6546
(dp6547
sg8
(g9
(S'S3'
p6548
I0
I1
tp6549
Rp6550
(I3
S'|'
p6551
NNNI3
I1
I0
tp6552
bS'A25'
p6553
tp6554
Rp6555
(dp6556
sg8
(g9
(S'S7'
p6557
I0
I1
tp6558
Rp6559
(I3
S'|'
p6560
NNNI7
I1
I0
tp6561
bS'125+A24'
p6562
tp6563
Rp6564
(dp6565
sg8
(g9
(S'S3'
p6566
I0
I1
tp6567
Rp6568
(I3
S'|'
p6569
NNNI3
I1
I0
tp6570
bS'A28'
p6571
tp6572
Rp6573
(dp6574
sg8
(g9
(S'S11'
p6575
I0
I1
tp6576
Rp6577
(I3
S'|'
p6578
NNNI11
I1
I0
tp6579
bS'631+723+901'
p6580
tp6581
Rp6582
(dp6583
sg8
(g9
(S'S7'
p6584
I0
I1
tp6585
Rp6586
(I3
S'|'
p6587
NNNI7
I1
I0
tp6588
bS'724+D16'
p6589
tp6590
Rp6591
g4766
sg8
(g9
(S'S7'
p6592
I0
I1
tp6593
Rp6594
(I3
S'|'
p6595
NNNI7
I1
I0
tp6596
bS'D17+R17'
p6597
tp6598
Rp6599
g4256
sg8
(g9
(S'S3'
p6600
I0
I1
tp6601
Rp6602
(I3
S'|'
p6603
NNNI3
I1
I0
tp6604
bS'123'
p6605
tp6606
Rp6607
(dp6608
sg8
(g9
(S'S3'
p6609
I0
I1
tp6610
Rp6611
(I3
S'|'
p6612
NNNI3
I1
I0
tp6613
bS'126'
p6614
tp6615
Rp6616
(dp6617
sg8
(g9
(S'S3'
p6618
I0
I1
tp6619
Rp6620
(I3
S'|'
p6621
NNNI3
I1
I0
tp6622
bS'128'
p6623
tp6624
Rp6625
(dp6626
ssg1133
(dp6627
g8
(g9
(S'S3'
p6628
I0
I1
tp6629
Rp6630
(I3
S'|'
p6631
NNNI3
I1
I0
tp6632
bS'406'
p6633
tp6634
Rp6635
(dp6636
sg8
(g9
(S'S3'
p6637
I0
I1
tp6638
Rp6639
(I3
S'|'
p6640
NNNI3
I1
I0
tp6641
bS'408'
p6642
tp6643
Rp6644
(dp6645
ssg1142
(dp6646
g8
(g9
(S'S3'
p6647
I0
I1
tp6648
Rp6649
(I3
S'|'
p6650
NNNI3
I1
I0
tp6651
bS'407'
p6652
tp6653
Rp6654
g6636
sg8
(g9
(S'S3'
p6655
I0
I1
tp6656
Rp6657
(I3
S'|'
p6658
NNNI3
I1
I0
tp6659
bS'405'
p6660
tp6661
Rp6662
(dp6663
ssg1151
(dp6664
g8
(g9
(S'S3'
p6665
I0
I1
tp6666
Rp6667
(I3
S'|'
p6668
NNNI3
I1
I0
tp6669
bS'406'
p6670
tp6671
Rp6672
g6663
sg8
(g9
(S'S3'
p6673
I0
I1
tp6674
Rp6675
(I3
S'|'
p6676
NNNI3
I1
I0
tp6677
bS'402'
p6678
tp6679
Rp6680
(dp6681
ssg1160
(dp6682
g8
(g9
(S'S3'
p6683
I0
I1
tp6684
Rp6685
(I3
S'|'
p6686
NNNI3
I1
I0
tp6687
bS'R36'
p6688
tp6689
Rp6690
(dp6691
sg8
(g9
(S'S3'
p6692
I0
I1
tp6693
Rp6694
(I3
S'|'
p6695
NNNI3
I1
I0
tp6696
bS'R40'
p6697
tp6698
Rp6699
(dp6700
ssg1169
(dp6701
g8
(g9
(S'S3'
p6702
I0
I1
tp6703
Rp6704
(I3
S'|'
p6705
NNNI3
I1
I0
tp6706
bS'402'
p6707
tp6708
Rp6709
(dp6710
ssg1178
(dp6711
g8
(g9
(S'S7'
p6712
I0
I1
tp6713
Rp6714
(I3
S'|'
p6715
NNNI7
I1
I0
tp6716
bS'F23+R33'
p6717
tp6718
Rp6719
(dp6720
sg8
(g9
(S'S3'
p6721
I0
I1
tp6722
Rp6723
(I3
S'|'
p6724
NNNI3
I1
I0
tp6725
bS'R35'
p6726
tp6727
Rp6728
(dp6729
ssg1187
(dp6730
g8
(g9
(S'S3'
p6731
I0
I1
tp6732
Rp6733
(I3
S'|'
p6734
NNNI3
I1
I0
tp6735
bS'R34'
p6736
tp6737
Rp6738
g6729
sg8
(g9
(S'S3'
p6739
I0
I1
tp6740
Rp6741
(I3
S'|'
p6742
NNNI3
I1
I0
tp6743
bS'R36'
p6744
tp6745
Rp6746
(dp6747
ssg1196
(dp6748
g8
(g9
(S'S11'
p6749
I0
I1
tp6750
Rp6751
(I3
S'|'
p6752
NNNI11
I1
I0
tp6753
bS'235+D24+R31'
p6754
tp6755
Rp6756
(dp6757
sg8
(g9
(S'S3'
p6758
I0
I1
tp6759
Rp6760
(I3
S'|'
p6761
NNNI3
I1
I0
tp6762
bS'R41'
p6763
tp6764
Rp6765
(dp6766
sg8
(g9
(S'S3'
p6767
I0
I1
tp6768
Rp6769
(I3
S'|'
p6770
NNNI3
I1
I0
tp6771
bS'B12'
p6772
tp6773
Rp6774
(dp6775
sg8
(g9
(S'S3'
p6776
I0
I1
tp6777
Rp6778
(I3
S'|'
p6779
NNNI3
I1
I0
tp6780
bS'R39'
p6781
tp6782
Rp6783
g6691
sg8
(g9
(S'S3'
p6784
I0
I1
tp6785
Rp6786
(I3
S'|'
p6787
NNNI3
I1
I0
tp6788
bS'R35'
p6789
tp6790
Rp6791
g6747
ssg1205
(dp6792
g8
(g9
(S'S11'
p6793
I0
I1
tp6794
Rp6795
(I3
S'|'
p6796
NNNI11
I1
I0
tp6797
bS'235+D24+R31'
p6798
tp6799
Rp6800
(dp6801
sg8
(g9
(S'S3'
p6802
I0
I1
tp6803
Rp6804
(I3
S'|'
p6805
NNNI3
I1
I0
tp6806
bS'D22'
p6807
tp6808
Rp6809
(dp6810
sg8
(g9
(S'S15'
p6811
I0
I1
tp6812
Rp6813
(I3
S'|'
p6814
NNNI15
I1
I0
tp6815
bS'639+M20+Q01+R23'
p6816
tp6817
Rp6818
(dp6819
sg8
(g9
(S'S3'
p6820
I0
I1
tp6821
Rp6822
(I3
S'|'
p6823
NNNI3
I1
I0
tp6824
bS'R29'
p6825
tp6826
Rp6827
(dp6828
ssg1214
(dp6829
g8
(g9
(S'S11'
p6830
I0
I1
tp6831
Rp6832
(I3
S'|'
p6833
NNNI11
I1
I0
tp6834
bS'235+D24+R31'
p6835
tp6836
Rp6837
(dp6838
sg8
(g9
(S'S7'
p6839
I0
I1
tp6840
Rp6841
(I3
S'|'
p6842
NNNI7
I1
I0
tp6843
bS'F23+R33'
p6844
tp6845
Rp6846
(dp6847
ssg1223
(dp6848
g8
(g9
(S'S3'
p6849
I0
I1
tp6850
Rp6851
(I3
S'|'
p6852
NNNI3
I1
I0
tp6853
bS'407'
p6854
tp6855
Rp6856
g6645
sg8
(g9
(S'S3'
p6857
I0
I1
tp6858
Rp6859
(I3
S'|'
p6860
NNNI3
I1
I0
tp6861
bS'409'
p6862
tp6863
Rp6864
(dp6865
ssg1232
(dp6866
g8
(g9
(S'S7'
p6867
I0
I1
tp6868
Rp6869
(I3
S'|'
p6870
NNNI7
I1
I0
tp6871
bS'G29+L10'
p6872
tp6873
Rp6874
(dp6875
sg8
(g9
(S'S3'
p6876
I0
I1
tp6877
Rp6878
(I3
S'|'
p6879
NNNI3
I1
I0
tp6880
bS'L06'
p6881
tp6882
Rp6883
(dp6884
ssg1241
(dp6885
g8
(g9
(S'S3'
p6886
I0
I1
tp6887
Rp6888
(I3
S'|'
p6889
NNNI3
I1
I0
tp6890
bS'L05'
p6891
tp6892
Rp6893
(dp6894
sg8
(g9
(S'S3'
p6895
I0
I1
tp6896
Rp6897
(I3
S'|'
p6898
NNNI3
I1
I0
tp6899
bS'L08'
p6900
tp6901
Rp6902
g6884
ssg1250
(dp6903
g8
(g9
(S'S3'
p6904
I0
I1
tp6905
Rp6906
(I3
S'|'
p6907
NNNI3
I1
I0
tp6908
bS'L06'
p6909
tp6910
Rp6911
g6894
sg8
(g9
(S'S11'
p6912
I0
I1
tp6913
Rp6914
(I3
S'|'
p6915
NNNI11
I1
I0
tp6916
bS'635+L03+R20'
p6917
tp6918
Rp6919
g4057
ssg1259
(dp6920
g8
(g9
(S'S3'
p6921
I0
I1
tp6922
Rp6923
(I3
S'|'
p6924
NNNI3
I1
I0
tp6925
bS'R34'
p6926
tp6927
Rp6928
g6720
sg8
(g9
(S'S3'
p6929
I0
I1
tp6930
Rp6931
(I3
S'|'
p6932
NNNI3
I1
I0
tp6933
bS'F22'
p6934
tp6935
Rp6936
(dp6937
sg8
(g9
(S'S3'
p6938
I0
I1
tp6939
Rp6940
(I3
S'|'
p6941
NNNI3
I1
I0
tp6942
bS'R32'
p6943
tp6944
Rp6945
g6847
sg8
(g9
(S'S3'
p6946
I0
I1
tp6947
Rp6948
(I3
S'|'
p6949
NNNI3
I1
I0
tp6950
bS'F24'
p6951
tp6952
Rp6953
(dp6954
ssg1268
(dp6955
g8
(g9
(S'S3'
p6956
I0
I1
tp6957
Rp6958
(I3
S'|'
p6959
NNNI3
I1
I0
tp6960
bS'707'
p6961
tp6962
Rp6963
(dp6964
sg8
(g9
(S'S3'
p6965
I0
I1
tp6966
Rp6967
(I3
S'|'
p6968
NNNI3
I1
I0
tp6969
bS'709'
p6970
tp6971
Rp6972
(dp6973
ssg1277
(dp6974
g8
(g9
(S'S3'
p6975
I0
I1
tp6976
Rp6977
(I3
S'|'
p6978
NNNI3
I1
I0
tp6979
bS'708'
p6980
tp6981
Rp6982
g6973
sg8
(g9
(S'S7'
p6983
I0
I1
tp6984
Rp6985
(I3
S'|'
p6986
NNNI7
I1
I0
tp6987
bS'710+G14'
p6988
tp6989
Rp6990
(dp6991
ssg1286
(dp6992
g8
(g9
(S'S3'
p6993
I0
I1
tp6994
Rp6995
(I3
S'|'
p6996
NNNI3
I1
I0
tp6997
bS'706'
p6998
tp6999
Rp7000
(dp7001
sg8
(g9
(S'S3'
p7002
I0
I1
tp7003
Rp7004
(I3
S'|'
p7005
NNNI3
I1
I0
tp7006
bS'702'
p7007
tp7008
Rp7009
(dp7010
ssg1295
(dp7011
g8
(g9
(S'S3'
p7012
I0
I1
tp7013
Rp7014
(I3
S'|'
p7015
NNNI3
I1
I0
tp7016
bS'705'
p7017
tp7018
Rp7019
g7001
sg8
(g9
(S'S3'
p7020
I0
I1
tp7021
Rp7022
(I3
S'|'
p7023
NNNI3
I1
I0
tp7024
bS'707'
p7025
tp7026
Rp7027
(dp7028
ssg1304
(dp7029
g8
(g9
(S'S3'
p7030
I0
I1
tp7031
Rp7032
(I3
S'|'
p7033
NNNI3
I1
I0
tp7034
bS'706'
p7035
tp7036
Rp7037
g7028
sg8
(g9
(S'S3'
p7038
I0
I1
tp7039
Rp7040
(I3
S'|'
p7041
NNNI3
I1
I0
tp7042
bS'708'
p7043
tp7044
Rp7045
g6964
ssg1313
(dp7046
g8
(g9
(S'S3'
p7047
I0
I1
tp7048
Rp7049
(I3
S'|'
p7050
NNNI3
I1
I0
tp7051
bS'702'
p7052
tp7053
Rp7054
(dp7055
ssg1322
(dp7056
g8
(g9
(S'S3'
p7057
I0
I1
tp7058
Rp7059
(I3
S'|'
p7060
NNNI3
I1
I0
tp7061
bS'705'
p7062
tp7063
Rp7064
g7010
sg8
(g9
(S'S3'
p7065
I0
I1
tp7066
Rp7067
(I3
S'|'
p7068
NNNI3
I1
I0
tp7069
bS'701'
p7070
tp7071
Rp7072
g7055
ssg1331
(dp7073
g8
(g9
(S'S3'
p7074
I0
I1
tp7075
Rp7076
(I3
S'|'
p7077
NNNI3
I1
I0
tp7078
bS'D14'
p7079
tp7080
Rp7081
(dp7082
sg8
(g9
(S'S3'
p7083
I0
I1
tp7084
Rp7085
(I3
S'|'
p7086
NNNI3
I1
I0
tp7087
bS'A15'
p7088
tp7089
Rp7090
(dp7091
sg8
(g9
(S'S3'
p7092
I0
I1
tp7093
Rp7094
(I3
S'|'
p7095
NNNI3
I1
I0
tp7096
bS'A22'
p7097
tp7098
Rp7099
(dp7100
sg8
(g9
(S'S3'
p7101
I0
I1
tp7102
Rp7103
(I3
S'|'
p7104
NNNI3
I1
I0
tp7105
bS'A25'
p7106
tp7107
Rp7108
(dp7109
sg8
(g9
(S'S19'
p7110
I0
I1
tp7111
Rp7112
(I3
S'|'
p7113
NNNI19
I1
I0
tp7114
bS'127+725+902+A27+R16'
p7115
tp7116
Rp7117
g6565
sg8
(g9
(S'S3'
p7118
I0
I1
tp7119
Rp7120
(I3
S'|'
p7121
NNNI3
I1
I0
tp7122
bS'124'
p7123
tp7124
Rp7125
(dp7126
sg8
(g9
(S'S3'
p7127
I0
I1
tp7128
Rp7129
(I3
S'|'
p7130
NNNI3
I1
I0
tp7131
bS'126'
p7132
tp7133
Rp7134
(dp7135
ssg1340
(dp7136
g8
(g9
(S'S3'
p7137
I0
I1
tp7138
Rp7139
(I3
S'|'
p7140
NNNI3
I1
I0
tp7141
bS'J31'
p7142
tp7143
Rp7144
(dp7145
sg8
(g9
(S'S3'
p7146
I0
I1
tp7147
Rp7148
(I3
S'|'
p7149
NNNI3
I1
I0
tp7150
bS'J29'
p7151
tp7152
Rp7153
g4483
ssg1349
(dp7154
g8
(g9
(S'S3'
p7155
I0
I1
tp7156
Rp7157
(I3
S'|'
p7158
NNNI3
I1
I0
tp7159
bS'M11'
p7160
tp7161
Rp7162
(dp7163
sg8
(g9
(S'S3'
p7164
I0
I1
tp7165
Rp7166
(I3
S'|'
p7167
NNNI3
I1
I0
tp7168
bS'J30'
p7169
tp7170
Rp7171
g7145
ssg1358
(dp7172
g8
(g9
(S'S3'
p7173
I0
I1
tp7174
Rp7175
(I3
S'|'
p7176
NNNI3
I1
I0
tp7177
bS'D06'
p7178
tp7179
Rp7180
(dp7181
sg8
(g9
(S'S3'
p7182
I0
I1
tp7183
Rp7184
(I3
S'|'
p7185
NNNI3
I1
I0
tp7186
bS'D08'
p7187
tp7188
Rp7189
(dp7190
ssg1367
(dp7191
g8
(g9
(S'S3'
p7192
I0
I1
tp7193
Rp7194
(I3
S'|'
p7195
NNNI3
I1
I0
tp7196
bS'D07'
p7197
tp7198
Rp7199
g7181
sg8
(g9
(S'S3'
p7200
I0
I1
tp7201
Rp7202
(I3
S'|'
p7203
NNNI3
I1
I0
tp7204
bS'D05'
p7205
tp7206
Rp7207
(dp7208
ssg1376
(dp7209
g8
(g9
(S'S3'
p7210
I0
I1
tp7211
Rp7212
(I3
S'|'
p7213
NNNI3
I1
I0
tp7214
bS'D06'
p7215
tp7216
Rp7217
g7208
sg8
(g9
(S'S3'
p7218
I0
I1
tp7219
Rp7220
(I3
S'|'
p7221
NNNI3
I1
I0
tp7222
bS'D04'
p7223
tp7224
Rp7225
(dp7226
ssg1385
(dp7227
g8
(g9
(S'S3'
p7228
I0
I1
tp7229
Rp7230
(I3
S'|'
p7231
NNNI3
I1
I0
tp7232
bS'D05'
p7233
tp7234
Rp7235
g7226
sg8
(g9
(S'S3'
p7236
I0
I1
tp7237
Rp7238
(I3
S'|'
p7239
NNNI3
I1
I0
tp7240
bS'D03'
p7241
tp7242
Rp7243
(dp7244
ssg1394
(dp7245
g8
(g9
(S'S3'
p7246
I0
I1
tp7247
Rp7248
(I3
S'|'
p7249
NNNI3
I1
I0
tp7250
bS'D04'
p7251
tp7252
Rp7253
g7244
sg8
(g9
(S'S3'
p7254
I0
I1
tp7255
Rp7256
(I3
S'|'
p7257
NNNI3
I1
I0
tp7258
bS'D01'
p7259
tp7260
Rp7261
(dp7262
ssg1403
(dp7263
g8
(g9
(S'S3'
p7264
I0
I1
tp7265
Rp7266
(I3
S'|'
p7267
NNNI3
I1
I0
tp7268
bS'D03'
p7269
tp7270
Rp7271
g7262
ssg1412
(dp7272
g8
(g9
(S'S3'
p7273
I0
I1
tp7274
Rp7275
(I3
S'|'
p7276
NNNI3
I1
I0
tp7277
bS'D10'
p7278
tp7279
Rp7280
(dp7281
sg8
(g9
(S'S3'
p7282
I0
I1
tp7283
Rp7284
(I3
S'|'
p7285
NNNI3
I1
I0
tp7286
bS'D08'
p7287
tp7288
Rp7289
(dp7290
ssg1421
(dp7291
g8
(g9
(S'S3'
p7292
I0
I1
tp7293
Rp7294
(I3
S'|'
p7295
NNNI3
I1
I0
tp7296
bS'D07'
p7297
tp7298
Rp7299
g7190
sg8
(g9
(S'S3'
p7300
I0
I1
tp7301
Rp7302
(I3
S'|'
p7303
NNNI3
I1
I0
tp7304
bS'D09'
p7305
tp7306
Rp7307
g7290
ssg1430
(dp7308
g8
(g9
(S'S3'
p7309
I0
I1
tp7310
Rp7311
(I3
S'|'
p7312
NNNI3
I1
I0
tp7313
bS'244'
p7314
tp7315
Rp7316
g5261
sg8
(g9
(S'S3'
p7317
I0
I1
tp7318
Rp7319
(I3
S'|'
p7320
NNNI3
I1
I0
tp7321
bS'246'
p7322
tp7323
Rp7324
(dp7325
ssg1439
(dp7326
g8
(g9
(S'S3'
p7327
I0
I1
tp7328
Rp7329
(I3
S'|'
p7330
NNNI3
I1
I0
tp7331
bS'A46'
p7332
tp7333
Rp7334
g5233
sg8
(g9
(S'S3'
p7335
I0
I1
tp7336
Rp7337
(I3
S'|'
p7338
NNNI3
I1
I0
tp7339
bS'A48'
p7340
tp7341
Rp7342
(dp7343
ssg1448
(dp7344
g8
(g9
(S'S7'
p7345
I0
I1
tp7346
Rp7347
(I3
S'|'
p7348
NNNI7
I1
I0
tp7349
bS'A45+S01'
p7350
tp7351
Rp7352
(dp7353
sg8
(g9
(S'S3'
p7354
I0
I1
tp7355
Rp7356
(I3
S'|'
p7357
NNNI3
I1
I0
tp7358
bS'A43'
p7359
tp7360
Rp7361
(dp7362
ssg1457
(dp7363
g8
(g9
(S'S3'
p7364
I0
I1
tp7365
Rp7366
(I3
S'|'
p7367
NNNI3
I1
I0
tp7368
bS'245'
p7369
tp7370
Rp7371
g7325
sg8
(g9
(S'S3'
p7372
I0
I1
tp7373
Rp7374
(I3
S'|'
p7375
NNNI3
I1
I0
tp7376
bS'247'
p7377
tp7378
Rp7379
g5280
ssg1466
(dp7380
g8
(g9
(S'S7'
p7381
I0
I1
tp7382
Rp7383
(I3
S'|'
p7384
NNNI7
I1
I0
tp7385
bS'239+S04'
p7386
tp7387
Rp7388
(dp7389
sg8
(g9
(S'S3'
p7390
I0
I1
tp7391
Rp7392
(I3
S'|'
p7393
NNNI3
I1
I0
tp7394
bS'242'
p7395
tp7396
Rp7397
(dp7398
ssg1475
(dp7399
g8
(g9
(S'S3'
p7400
I0
I1
tp7401
Rp7402
(I3
S'|'
p7403
NNNI3
I1
I0
tp7404
bS'A44'
p7405
tp7406
Rp7407
g7362
sg8
(g9
(S'S3'
p7408
I0
I1
tp7409
Rp7410
(I3
S'|'
p7411
NNNI3
I1
I0
tp7412
bS'A42'
p7413
tp7414
Rp7415
g5307
ssg1484
(dp7416
g8
(g9
(S'S15'
p7417
I0
I1
tp7418
Rp7419
(I3
S'|'
p7420
NNNI15
I1
I0
tp7421
bS'229+418+A38+M22'
p7422
tp7423
Rp7424
(dp7425
sg8
(g9
(S'S3'
p7426
I0
I1
tp7427
Rp7428
(I3
S'|'
p7429
NNNI3
I1
I0
tp7430
bS'A41'
p7431
tp7432
Rp7433
g5379
ssg1493
(dp7434
g8
(g9
(S'S3'
p7435
I0
I1
tp7436
Rp7437
(I3
S'|'
p7438
NNNI3
I1
I0
tp7439
bS'241'
p7440
tp7441
Rp7442
g7398
sg8
(g9
(S'S3'
p7443
I0
I1
tp7444
Rp7445
(I3
S'|'
p7446
NNNI3
I1
I0
tp7447
bS'243'
p7448
tp7449
Rp7450
g5343
ssg1502
(dp7451
g8
(g9
(S'S3'
p7452
I0
I1
tp7453
Rp7454
(I3
S'|'
p7455
NNNI3
I1
I0
tp7456
bS'D14'
p7457
tp7458
Rp7459
(dp7460
sg8
(g9
(S'S3'
p7461
I0
I1
tp7462
Rp7463
(I3
S'|'
p7464
NNNI3
I1
I0
tp7465
bS'D15'
p7466
tp7467
Rp7468
(dp7469
sg8
(g9
(S'S7'
p7470
I0
I1
tp7471
Rp7472
(I3
S'|'
p7473
NNNI7
I1
I0
tp7474
bS'630+F11'
p7475
tp7476
Rp7477
(dp7478
ssg1511
(dp7479
g8
(g9
(S'S3'
p7480
I0
I1
tp7481
Rp7482
(I3
S'|'
p7483
NNNI3
I1
I0
tp7484
bS'F18'
p7485
tp7486
Rp7487
(dp7488
sg8
(g9
(S'S7'
p7489
I0
I1
tp7490
Rp7491
(I3
S'|'
p7492
NNNI7
I1
I0
tp7493
bS'F15+M18'
p7494
tp7495
Rp7496
g4703
ssg1520
(dp7497
g8
(g9
(S'S7'
p7498
I0
I1
tp7499
Rp7500
(I3
S'|'
p7501
NNNI7
I1
I0
tp7502
bS'239+S04'
p7503
tp7504
Rp7505
(dp7506
sg8
(g9
(S'S3'
p7507
I0
I1
tp7508
Rp7509
(I3
S'|'
p7510
NNNI3
I1
I0
tp7511
bS'249'
p7512
tp7513
Rp7514
g5398
ssg1529
(dp7515
g8
(g9
(S'S3'
p7516
I0
I1
tp7517
Rp7518
(I3
S'|'
p7519
NNNI3
I1
I0
tp7520
bS'A46'
p7521
tp7522
Rp7523
g5251
sg8
(g9
(S'S3'
p7524
I0
I1
tp7525
Rp7526
(I3
S'|'
p7527
NNNI3
I1
I0
tp7528
bS'A47'
p7529
tp7530
Rp7531
g7343
sg8
(g9
(S'S3'
p7532
I0
I1
tp7533
Rp7534
(I3
S'|'
p7535
NNNI3
I1
I0
tp7536
bS'A49'
p7537
tp7538
Rp7539
(dp7540
sg8
(g9
(S'S11'
p7541
I0
I1
tp7542
Rp7543
(I3
S'|'
p7544
NNNI11
I1
I0
tp7545
bS'A51+J27+L22'
p7546
tp7547
Rp7548
(dp7549
ssg1538
(dp7550
g8
(g9
(S'S3'
p7551
I0
I1
tp7552
Rp7553
(I3
S'|'
p7554
NNNI3
I1
I0
tp7555
bS'A50'
p7556
tp7557
Rp7558
(dp7559
sg8
(g9
(S'S3'
p7560
I0
I1
tp7561
Rp7562
(I3
S'|'
p7563
NNNI3
I1
I0
tp7564
bS'A48'
p7565
tp7566
Rp7567
g7540
ssg1547
(dp7568
g8
(g9
(S'S3'
p7569
I0
I1
tp7570
Rp7571
(I3
S'|'
p7572
NNNI3
I1
I0
tp7573
bS'D43'
p7574
tp7575
Rp7576
g6177
sg8
(g9
(S'S3'
p7577
I0
I1
tp7578
Rp7579
(I3
S'|'
p7580
NNNI3
I1
I0
tp7581
bS'N09'
p7582
tp7583
Rp7584
g4822
ssg1556
(dp7585
g8
(g9
(S'S3'
p7586
I0
I1
tp7587
Rp7588
(I3
S'|'
p7589
NNNI3
I1
I0
tp7590
bS'622'
p7591
tp7592
Rp7593
(dp7594
sg8
(g9
(S'S3'
p7595
I0
I1
tp7596
Rp7597
(I3
S'|'
p7598
NNNI3
I1
I0
tp7599
bS'624'
p7600
tp7601
Rp7602
(dp7603
ssg1565
(dp7604
g8
(g9
(S'S3'
p7605
I0
I1
tp7606
Rp7607
(I3
S'|'
p7608
NNNI3
I1
I0
tp7609
bS'623'
p7610
tp7611
Rp7612
g7594
sg8
(g9
(S'S3'
p7613
I0
I1
tp7614
Rp7615
(I3
S'|'
p7616
NNNI3
I1
I0
tp7617
bS'621'
p7618
tp7619
Rp7620
(dp7621
ssg1574
(dp7622
g8
(g9
(S'S3'
p7623
I0
I1
tp7624
Rp7625
(I3
S'|'
p7626
NNNI3
I1
I0
tp7627
bS'622'
p7628
tp7629
Rp7630
g7621
sg8
(g9
(S'S3'
p7631
I0
I1
tp7632
Rp7633
(I3
S'|'
p7634
NNNI3
I1
I0
tp7635
bS'416'
p7636
tp7637
Rp7638
(dp7639
sg8
(g9
(S'S3'
p7640
I0
I1
tp7641
Rp7642
(I3
S'|'
p7643
NNNI3
I1
I0
tp7644
bS'619'
p7645
tp7646
Rp7647
g5979
sg8
(g9
(S'S3'
p7648
I0
I1
tp7649
Rp7650
(I3
S'|'
p7651
NNNI3
I1
I0
tp7652
bS'626'
p7653
tp7654
Rp7655
(dp7656
ssg1583
(dp7657
g8
(g9
(S'S3'
p7658
I0
I1
tp7659
Rp7660
(I3
S'|'
p7661
NNNI3
I1
I0
tp7662
bS'628'
p7663
tp7664
Rp7665
(dp7666
sg8
(g9
(S'S3'
p7667
I0
I1
tp7668
Rp7669
(I3
S'|'
p7670
NNNI3
I1
I0
tp7671
bS'626'
p7672
tp7673
Rp7674
(dp7675
ssg1592
(dp7676
g8
(g9
(S'S11'
p7677
I0
I1
tp7678
Rp7679
(I3
S'|'
p7680
NNNI11
I1
I0
tp7681
bS'629+B08+R11'
p7682
tp7683
Rp7684
g4002
sg8
(g9
(S'S3'
p7685
I0
I1
tp7686
Rp7687
(I3
S'|'
p7688
NNNI3
I1
I0
tp7689
bS'621'
p7690
tp7691
Rp7692
g7656
sg8
(g9
(S'S3'
p7693
I0
I1
tp7694
Rp7695
(I3
S'|'
p7696
NNNI3
I1
I0
tp7697
bS'627'
p7698
tp7699
Rp7700
g7675
sg8
(g9
(S'S3'
p7701
I0
I1
tp7702
Rp7703
(I3
S'|'
p7704
NNNI3
I1
I0
tp7705
bS'625'
p7706
tp7707
Rp7708
(dp7709
ssg1601
(dp7710
g8
(g9
(S'S3'
p7711
I0
I1
tp7712
Rp7713
(I3
S'|'
p7714
NNNI3
I1
I0
tp7715
bS'626'
p7716
tp7717
Rp7718
g7709
sg8
(g9
(S'S3'
p7719
I0
I1
tp7720
Rp7721
(I3
S'|'
p7722
NNNI3
I1
I0
tp7723
bS'624'
p7724
tp7725
Rp7726
(dp7727
ssg1610
(dp7728
g8
(g9
(S'S3'
p7729
I0
I1
tp7730
Rp7731
(I3
S'|'
p7732
NNNI3
I1
I0
tp7733
bS'623'
p7734
tp7735
Rp7736
g7603
sg8
(g9
(S'S3'
p7737
I0
I1
tp7738
Rp7739
(I3
S'|'
p7740
NNNI3
I1
I0
tp7741
bS'625'
p7742
tp7743
Rp7744
g7727
ssg1619
(dp7745
g8
(g9
(S'S11'
p7746
I0
I1
tp7747
Rp7748
(I3
S'|'
p7749
NNNI11
I1
I0
tp7750
bS'629+B08+R11'
p7751
tp7752
Rp7753
g3949
sg8
(g9
(S'S3'
p7754
I0
I1
tp7755
Rp7756
(I3
S'|'
p7757
NNNI3
I1
I0
tp7758
bS'627'
p7759
tp7760
Rp7761
g7666
ssg1628
(dp7762
g8
(g9
(S'S7'
p7763
I0
I1
tp7764
Rp7765
(I3
S'|'
p7766
NNNI7
I1
I0
tp7767
bS'A32+D20'
p7768
tp7769
Rp7770
(dp7771
sg8
(g9
(S'S3'
p7772
I0
I1
tp7773
Rp7774
(I3
S'|'
p7775
NNNI3
I1
I0
tp7776
bS'A34'
p7777
tp7778
Rp7779
(dp7780
ssg1637
(dp7781
g8
(g9
(S'S3'
p7782
I0
I1
tp7783
Rp7784
(I3
S'|'
p7785
NNNI3
I1
I0
tp7786
bS'A28'
p7787
tp7788
Rp7789
(dp7790
sg8
(g9
(S'S7'
p7791
I0
I1
tp7792
Rp7793
(I3
S'|'
p7794
NNNI7
I1
I0
tp7795
bS'A31+L01'
p7796
tp7797
Rp7798
(dp7799
ssg1646
(dp7800
g8
(g9
(S'S3'
p7801
I0
I1
tp7802
Rp7803
(I3
S'|'
p7804
NNNI3
I1
I0
tp7805
bS'A33'
p7806
tp7807
Rp7808
g7780
sg8
(g9
(S'S11'
p7809
I0
I1
tp7810
Rp7811
(I3
S'|'
p7812
NNNI11
I1
I0
tp7813
bS'228+A36+E01'
p7814
tp7815
Rp7816
(dp7817
sg8
(g9
(S'S7'
p7818
I0
I1
tp7819
Rp7820
(I3
S'|'
p7821
NNNI7
I1
I0
tp7822
bS'A32+D20'
p7823
tp7824
Rp7825
(dp7826
ssg1655
(dp7827
g8
(g9
(S'S3'
p7828
I0
I1
tp7829
Rp7830
(I3
S'|'
p7831
NNNI3
I1
I0
tp7832
bS'J17'
p7833
tp7834
Rp7835
(dp7836
sg8
(g9
(S'S3'
p7837
I0
I1
tp7838
Rp7839
(I3
S'|'
p7840
NNNI3
I1
I0
tp7841
bS'J15'
p7842
tp7843
Rp7844
(dp7845
ssg1664
(dp7846
g8
(g9
(S'S3'
p7847
I0
I1
tp7848
Rp7849
(I3
S'|'
p7850
NNNI3
I1
I0
tp7851
bS'J16'
p7852
tp7853
Rp7854
g7836
sg8
(g9
(S'S3'
p7855
I0
I1
tp7856
Rp7857
(I3
S'|'
p7858
NNNI3
I1
I0
tp7859
bS'J19'
p7860
tp7861
Rp7862
(dp7863
ssg1673
(dp7864
g8
(g9
(S'S7'
p7865
I0
I1
tp7866
Rp7867
(I3
S'|'
p7868
NNNI7
I1
I0
tp7869
bS'A32+D20'
p7870
tp7871
Rp7872
(dp7873
sg8
(g9
(S'S11'
p7874
I0
I1
tp7875
Rp7876
(I3
S'|'
p7877
NNNI11
I1
I0
tp7878
bS'635+L03+R20'
p7879
tp7880
Rp7881
g4084
sg8
(g9
(S'S3'
p7882
I0
I1
tp7883
Rp7884
(I3
S'|'
p7885
NNNI3
I1
I0
tp7886
bS'D18'
p7887
tp7888
Rp7889
(dp7890
sg8
(g9
(S'S3'
p7891
I0
I1
tp7892
Rp7893
(I3
S'|'
p7894
NNNI3
I1
I0
tp7895
bS'131'
p7896
tp7897
Rp7898
g6367
sg8
(g9
(S'S3'
p7899
I0
I1
tp7900
Rp7901
(I3
S'|'
p7902
NNNI3
I1
I0
tp7903
bS'133'
p7904
tp7905
Rp7906
g6339
sg8
(g9
(S'S7'
p7907
I0
I1
tp7908
Rp7909
(I3
S'|'
p7910
NNNI7
I1
I0
tp7911
bS'A31+L01'
p7912
tp7913
Rp7914
(dp7915
sg8
(g9
(S'S3'
p7916
I0
I1
tp7917
Rp7918
(I3
S'|'
p7919
NNNI3
I1
I0
tp7920
bS'137'
p7921
tp7922
Rp7923
g6413
sg8
(g9
(S'S3'
p7924
I0
I1
tp7925
Rp7926
(I3
S'|'
p7927
NNNI3
I1
I0
tp7928
bS'128'
p7929
tp7930
Rp7931
(dp7932
ssg1682
(dp7933
g8
(g9
(S'S3'
p7934
I0
I1
tp7935
Rp7936
(I3
S'|'
p7937
NNNI3
I1
I0
tp7938
bS'A49'
p7939
tp7940
Rp7941
g7559
sg8
(g9
(S'S11'
p7942
I0
I1
tp7943
Rp7944
(I3
S'|'
p7945
NNNI11
I1
I0
tp7946
bS'A51+J27+L22'
p7947
tp7948
Rp7949
(dp7950
ssg1691
(dp7951
g8
(g9
(S'S3'
p7952
I0
I1
tp7953
Rp7954
(I3
S'|'
p7955
NNNI3
I1
I0
tp7956
bS'A52'
p7957
tp7958
Rp7959
(dp7960
sg8
(g9
(S'S3'
p7961
I0
I1
tp7962
Rp7963
(I3
S'|'
p7964
NNNI3
I1
I0
tp7965
bS'A54'
p7966
tp7967
Rp7968
g4621
ssg1700
(dp7969
g8
(g9
(S'S3'
p7970
I0
I1
tp7971
Rp7972
(I3
S'|'
p7973
NNNI3
I1
I0
tp7974
bS'M10'
p7975
tp7976
Rp7977
(dp7978
sg8
(g9
(S'S3'
p7979
I0
I1
tp7980
Rp7981
(I3
S'|'
p7982
NNNI3
I1
I0
tp7983
bS'M12'
p7984
tp7985
Rp7986
(dp7987
sg8
(g9
(S'S3'
p7988
I0
I1
tp7989
Rp7990
(I3
S'|'
p7991
NNNI3
I1
I0
tp7992
bS'J31'
p7993
tp7994
Rp7995
g7163
sg8
(g9
(S'S3'
p7996
I0
I1
tp7997
Rp7998
(I3
S'|'
p7999
NNNI3
I1
I0
tp8000
bS'M16'
p8001
tp8002
Rp8003
(dp8004
ssg1709
(dp8005
g8
(g9
(S'S3'
p8006
I0
I1
tp8007
Rp8008
(I3
S'|'
p8009
NNNI3
I1
I0
tp8010
bS'M11'
p8011
tp8012
Rp8013
g7978
sg8
(g9
(S'S3'
p8014
I0
I1
tp8015
Rp8016
(I3
S'|'
p8017
NNNI3
I1
I0
tp8018
bS'M09'
p8019
tp8020
Rp8021
(dp8022
ssg1718
(dp8023
g8
(g9
(S'S3'
p8024
I0
I1
tp8025
Rp8026
(I3
S'|'
p8027
NNNI3
I1
I0
tp8028
bS'M12'
p8029
tp8030
Rp8031
(dp8032
sg8
(g9
(S'S3'
p8033
I0
I1
tp8034
Rp8035
(I3
S'|'
p8036
NNNI3
I1
I0
tp8037
bS'M14'
p8038
tp8039
Rp8040
(dp8041
ssg1727
(dp8042
g8
(g9
(S'S3'
p8043
I0
I1
tp8044
Rp8045
(I3
S'|'
p8046
NNNI3
I1
I0
tp8047
bS'A53'
p8048
tp8049
Rp8050
g7960
sg8
(g9
(S'S11'
p8051
I0
I1
tp8052
Rp8053
(I3
S'|'
p8054
NNNI11
I1
I0
tp8055
bS'A51+J27+L22'
p8056
tp8057
Rp8058
(dp8059
ssg1736
(dp8060
g8
(g9
(S'S3'
p8061
I0
I1
tp8062
Rp8063
(I3
S'|'
p8064
NNNI3
I1
I0
tp8065
bS'R36'
p8066
tp8067
Rp8068
g6766
sg8
(g9
(S'S3'
p8069
I0
I1
tp8070
Rp8071
(I3
S'|'
p8072
NNNI3
I1
I0
tp8073
bS'N02'
p8074
tp8075
Rp8076
g4932
sg8
(g9
(S'S3'
p8077
I0
I1
tp8078
Rp8079
(I3
S'|'
p8080
NNNI3
I1
I0
tp8081
bS'R40'
p8082
tp8083
Rp8084
(dp8085
sg8
(g9
(S'S3'
p8086
I0
I1
tp8087
Rp8088
(I3
S'|'
p8089
NNNI3
I1
I0
tp8090
bS'R42'
p8091
tp8092
Rp8093
(dp8094
ssg1745
(dp8095
g8
(g9
(S'S3'
p8096
I0
I1
tp8097
Rp8098
(I3
S'|'
p8099
NNNI3
I1
I0
tp8100
bS'R41'
p8101
tp8102
Rp8103
g8085
sg8
(g9
(S'S3'
p8104
I0
I1
tp8105
Rp8106
(I3
S'|'
p8107
NNNI3
I1
I0
tp8108
bS'R39'
p8109
tp8110
Rp8111
g6700
ssg1754
(dp8112
g8
(g9
(S'S3'
p8113
I0
I1
tp8114
Rp8115
(I3
S'|'
p8116
NNNI3
I1
I0
tp8117
bS'R44'
p8118
tp8119
Rp8120
(dp8121
sg8
(g9
(S'S3'
p8122
I0
I1
tp8123
Rp8124
(I3
S'|'
p8125
NNNI3
I1
I0
tp8126
bS'R42'
p8127
tp8128
Rp8129
(dp8130
ssg1763
(dp8131
g8
(g9
(S'S3'
p8132
I0
I1
tp8133
Rp8134
(I3
S'|'
p8135
NNNI3
I1
I0
tp8136
bS'R41'
p8137
tp8138
Rp8139
g8094
sg8
(g9
(S'S3'
p8140
I0
I1
tp8141
Rp8142
(I3
S'|'
p8143
NNNI3
I1
I0
tp8144
bS'R43'
p8145
tp8146
Rp8147
g8130
ssg1772
(dp8148
g8
(g9
(S'S7'
p8149
I0
I1
tp8150
Rp8151
(I3
S'|'
p8152
NNNI7
I1
I0
tp8153
bS'F15+M18'
p8154
tp8155
Rp8156
g4694
sg8
(g9
(S'S15'
p8157
I0
I1
tp8158
Rp8159
(I3
S'|'
p8160
NNNI15
I1
I0
tp8161
bS'639+M20+Q01+R23'
p8162
tp8163
Rp8164
(dp8165
ssg1781
(dp8166
g8
(g9
(S'S3'
p8167
I0
I1
tp8168
Rp8169
(I3
S'|'
p8170
NNNI3
I1
I0
tp8171
bS'A54'
p8172
tp8173
Rp8174
g4630
sg8
(g9
(S'S3'
p8175
I0
I1
tp8176
Rp8177
(I3
S'|'
p8178
NNNI3
I1
I0
tp8179
bS'A57'
p8180
tp8181
Rp8182
(dp8183
sg8
(g9
(S'S11'
p8184
I0
I1
tp8185
Rp8186
(I3
S'|'
p8187
NNNI11
I1
I0
tp8188
bS'A51+J27+L22'
p8189
tp8190
Rp8191
(dp8192
ssg1790
(dp8193
g8
(g9
(S'S3'
p8194
I0
I1
tp8195
Rp8196
(I3
S'|'
p8197
NNNI3
I1
I0
tp8198
bS'A59'
p8199
tp8200
Rp8201
g4684
sg8
(g9
(S'S3'
p8202
I0
I1
tp8203
Rp8204
(I3
S'|'
p8205
NNNI3
I1
I0
tp8206
bS'A55'
p8207
tp8208
Rp8209
g8183
ssg1799
(dp8210
g8
(g9
(S'S3'
p8211
I0
I1
tp8212
Rp8213
(I3
S'|'
p8214
NNNI3
I1
I0
tp8215
bS'F07'
p8216
tp8217
Rp8218
g4566
sg8
(g9
(S'S3'
p8219
I0
I1
tp8220
Rp8221
(I3
S'|'
p8222
NNNI3
I1
I0
tp8223
bS'F06'
p8224
tp8225
Rp8226
g4601
sg8
(g9
(S'S3'
p8227
I0
I1
tp8228
Rp8229
(I3
S'|'
p8230
NNNI3
I1
I0
tp8231
bS'G09'
p8232
tp8233
Rp8234
(dp8235
sg8
(g9
(S'S7'
p8236
I0
I1
tp8237
Rp8238
(I3
S'|'
p8239
NNNI7
I1
I0
tp8240
bS'710+G14'
p8241
tp8242
Rp8243
(dp8244
ssg1808
(dp8245
g8
(g9
(S'S3'
p8246
I0
I1
tp8247
Rp8248
(I3
S'|'
p8249
NNNI3
I1
I0
tp8250
bS'G08'
p8251
tp8252
Rp8253
g8235
sg8
(g9
(S'S3'
p8254
I0
I1
tp8255
Rp8256
(I3
S'|'
p8257
NNNI3
I1
I0
tp8258
bS'G10'
p8259
tp8260
Rp8261
g5552
ssg1817
(dp8262
g8
(g9
(S'S3'
p8263
I0
I1
tp8264
Rp8265
(I3
S'|'
p8266
NNNI3
I1
I0
tp8267
bS'G06'
p8268
tp8269
Rp8270
(dp8271
ssg1826
(dp8272
g8
(g9
(S'S3'
p8273
I0
I1
tp8274
Rp8275
(I3
S'|'
p8276
NNNI3
I1
I0
tp8277
bS'G05'
p8278
tp8279
Rp8280
g8271
sg8
(g9
(S'S3'
p8281
I0
I1
tp8282
Rp8283
(I3
S'|'
p8284
NNNI3
I1
I0
tp8285
bS'G07'
p8286
tp8287
Rp8288
(dp8289
sg8
(g9
(S'S3'
p8290
I0
I1
tp8291
Rp8292
(I3
S'|'
p8293
NNNI3
I1
I0
tp8294
bS'J12'
p8295
tp8296
Rp8297
(dp8298
ssg1835
(dp8299
g8
(g9
(S'S3'
p8300
I0
I1
tp8301
Rp8302
(I3
S'|'
p8303
NNNI3
I1
I0
tp8304
bS'G06'
p8305
tp8306
Rp8307
g8289
sg8
(g9
(S'S3'
p8308
I0
I1
tp8309
Rp8310
(I3
S'|'
p8311
NNNI3
I1
I0
tp8312
bS'F06'
p8313
tp8314
Rp8315
g4592
ssg1844
(dp8316
g8
(g9
(S'S3'
p8317
I0
I1
tp8318
Rp8319
(I3
S'|'
p8320
NNNI3
I1
I0
tp8321
bS'204'
p8322
tp8323
Rp8324
(dp8325
ssg1853
(dp8326
g8
(g9
(S'S3'
p8327
I0
I1
tp8328
Rp8329
(I3
S'|'
p8330
NNNI3
I1
I0
tp8331
bS'204'
p8332
tp8333
Rp8334
(dp8335
sg8
(g9
(S'S3'
p8336
I0
I1
tp8337
Rp8338
(I3
S'|'
p8339
NNNI3
I1
I0
tp8340
bS'206'
p8341
tp8342
Rp8343
(dp8344
ssg1862
(dp8345
g8
(g9
(S'S3'
p8346
I0
I1
tp8347
Rp8348
(I3
S'|'
p8349
NNNI3
I1
I0
tp8350
bS'201'
p8351
tp8352
Rp8353
g8325
sg8
(g9
(S'S3'
p8354
I0
I1
tp8355
Rp8356
(I3
S'|'
p8357
NNNI3
I1
I0
tp8358
bS'205'
p8359
tp8360
Rp8361
g8335
ssg1871
(dp8362
g8
(g9
(S'S3'
p8363
I0
I1
tp8364
Rp8365
(I3
S'|'
p8366
NNNI3
I1
I0
tp8367
bS'208'
p8368
tp8369
Rp8370
(dp8371
sg8
(g9
(S'S3'
p8372
I0
I1
tp8373
Rp8374
(I3
S'|'
p8375
NNNI3
I1
I0
tp8376
bS'206'
p8377
tp8378
Rp8379
(dp8380
ssg1880
(dp8381
g8
(g9
(S'S3'
p8382
I0
I1
tp8383
Rp8384
(I3
S'|'
p8385
NNNI3
I1
I0
tp8386
bS'205'
p8387
tp8388
Rp8389
g8344
sg8
(g9
(S'S3'
p8390
I0
I1
tp8391
Rp8392
(I3
S'|'
p8393
NNNI3
I1
I0
tp8394
bS'207'
p8395
tp8396
Rp8397
g8380
ssg1889
(dp8398
g8
(g9
(S'S3'
p8399
I0
I1
tp8400
Rp8401
(I3
S'|'
p8402
NNNI3
I1
I0
tp8403
bS'208'
p8404
tp8405
Rp8406
(dp8407
sg8
(g9
(S'S3'
p8408
I0
I1
tp8409
Rp8410
(I3
S'|'
p8411
NNNI3
I1
I0
tp8412
bS'210'
p8413
tp8414
Rp8415
(dp8416
ssg1898
(dp8417
g8
(g9
(S'S3'
p8418
I0
I1
tp8419
Rp8420
(I3
S'|'
p8421
NNNI3
I1
I0
tp8422
bS'209'
p8423
tp8424
Rp8425
g8407
sg8
(g9
(S'S3'
p8426
I0
I1
tp8427
Rp8428
(I3
S'|'
p8429
NNNI3
I1
I0
tp8430
bS'207'
p8431
tp8432
Rp8433
g8371
ssg1907
(dp8434
g8
(g9
(S'S15'
p8435
I0
I1
tp8436
Rp8437
(I3
S'|'
p8438
NNNI15
I1
I0
tp8439
bS'229+418+A38+M22'
p8440
tp8441
Rp8442
(dp8443
sg8
(g9
(S'S3'
p8444
I0
I1
tp8445
Rp8446
(I3
S'|'
p8447
NNNI3
I1
I0
tp8448
bS'137'
p8449
tp8450
Rp8451
g6395
sg8
(g9
(S'S3'
p8452
I0
I1
tp8453
Rp8454
(I3
S'|'
p8455
NNNI3
I1
I0
tp8456
bS'A34'
p8457
tp8458
Rp8459
g7817
ssg1916
(dp8460
g8
(g9
(S'S3'
p8461
I0
I1
tp8462
Rp8463
(I3
S'|'
p8464
NNNI3
I1
I0
tp8465
bS'A52'
p8466
tp8467
Rp8468
g8059
sg8
(g9
(S'S3'
p8469
I0
I1
tp8470
Rp8471
(I3
S'|'
p8472
NNNI3
I1
I0
tp8473
bS'L21'
p8474
tp8475
Rp8476
(dp8477
sg8
(g9
(S'S3'
p8478
I0
I1
tp8479
Rp8480
(I3
S'|'
p8481
NNNI3
I1
I0
tp8482
bS'A50'
p8483
tp8484
Rp8485
g7950
sg8
(g9
(S'S3'
p8486
I0
I1
tp8487
Rp8488
(I3
S'|'
p8489
NNNI3
I1
I0
tp8490
bS'J24'
p8491
tp8492
Rp8493
g4401
sg8
(g9
(S'S3'
p8494
I0
I1
tp8495
Rp8496
(I3
S'|'
p8497
NNNI3
I1
I0
tp8498
bS'A55'
p8499
tp8500
Rp8501
g8192
sg8
(g9
(S'S3'
p8502
I0
I1
tp8503
Rp8504
(I3
S'|'
p8505
NNNI3
I1
I0
tp8506
bS'L24'
p8507
tp8508
Rp8509
(dp8510
sg8
(g9
(S'S3'
p8511
I0
I1
tp8512
Rp8513
(I3
S'|'
p8514
NNNI3
I1
I0
tp8515
bS'A48'
p8516
tp8517
Rp8518
g7549
sg8
(g9
(S'S3'
p8519
I0
I1
tp8520
Rp8521
(I3
S'|'
p8522
NNNI3
I1
I0
tp8523
bS'J28'
p8524
tp8525
Rp8526
g4510
ssg1925
(dp8527
g8
(g9
(S'S7'
p8528
I0
I1
tp8529
Rp8530
(I3
S'|'
p8531
NNNI7
I1
I0
tp8532
bS'640+M21'
p8533
tp8534
Rp8535
g6529
sg8
(g9
(S'S11'
p8536
I0
I1
tp8537
Rp8538
(I3
S'|'
p8539
NNNI11
I1
I0
tp8540
bS'635+L03+R20'
p8541
tp8542
Rp8543
g4066
sg8
(g9
(S'S3'
p8544
I0
I1
tp8545
Rp8546
(I3
S'|'
p8547
NNNI3
I1
I0
tp8548
bS'638'
p8549
tp8550
Rp8551
(dp8552
sg8
(g9
(S'S11'
p8553
I0
I1
tp8554
Rp8555
(I3
S'|'
p8556
NNNI11
I1
I0
tp8557
bS'235+D24+R31'
p8558
tp8559
Rp8560
(dp8561
sg8
(g9
(S'S3'
p8562
I0
I1
tp8563
Rp8564
(I3
S'|'
p8565
NNNI3
I1
I0
tp8566
bS'M19'
p8567
tp8568
Rp8569
g8165
sg8
(g9
(S'S3'
p8570
I0
I1
tp8571
Rp8572
(I3
S'|'
p8573
NNNI3
I1
I0
tp8574
bS'R24'
p8575
tp8576
Rp8577
(dp8578
sg8
(g9
(S'S3'
p8579
I0
I1
tp8580
Rp8581
(I3
S'|'
p8582
NNNI3
I1
I0
tp8583
bS'R30'
p8584
tp8585
Rp8586
g6819
sg8
(g9
(S'S3'
p8587
I0
I1
tp8588
Rp8589
(I3
S'|'
p8590
NNNI3
I1
I0
tp8591
bS'R22'
p8592
tp8593
Rp8594
(dp8595
ssg1934
(dp8596
g8
(g9
(S'S7'
p8597
I0
I1
tp8598
Rp8599
(I3
S'|'
p8600
NNNI7
I1
I0
tp8601
bS'F23+R33'
p8602
tp8603
Rp8604
g6937
sg8
(g9
(S'S3'
p8605
I0
I1
tp8606
Rp8607
(I3
S'|'
p8608
NNNI3
I1
I0
tp8609
bS'F21'
p8610
tp8611
Rp8612
(dp8613
ssg1943
(dp8614
g8
(g9
(S'S3'
p8615
I0
I1
tp8616
Rp8617
(I3
S'|'
p8618
NNNI3
I1
I0
tp8619
bS'F22'
p8620
tp8621
Rp8622
g8613
sg8
(g9
(S'S3'
p8623
I0
I1
tp8624
Rp8625
(I3
S'|'
p8626
NNNI3
I1
I0
tp8627
bS'F20'
p8628
tp8629
Rp8630
(dp8631
ssg1952
(dp8632
g8
(g9
(S'S3'
p8633
I0
I1
tp8634
Rp8635
(I3
S'|'
p8636
NNNI3
I1
I0
tp8637
bS'F21'
p8638
tp8639
Rp8640
g8631
sg8
(g9
(S'S3'
p8641
I0
I1
tp8642
Rp8643
(I3
S'|'
p8644
NNNI3
I1
I0
tp8645
bS'A42'
p8646
tp8647
Rp8648
g5298
sg8
(g9
(S'S3'
p8649
I0
I1
tp8650
Rp8651
(I3
S'|'
p8652
NNNI3
I1
I0
tp8653
bS'A41'
p8654
tp8655
Rp8656
g5362
ssg1961
(dp8657
g8
(g9
(S'S3'
p8658
I0
I1
tp8659
Rp8660
(I3
S'|'
p8661
NNNI3
I1
I0
tp8662
bS'F29'
p8663
tp8664
Rp8665
(dp8666
sg8
(g9
(S'S3'
p8667
I0
I1
tp8668
Rp8669
(I3
S'|'
p8670
NNNI3
I1
I0
tp8671
bS'F26'
p8672
tp8673
Rp8674
(dp8675
ssg1970
(dp8676
g8
(g9
(S'S3'
p8677
I0
I1
tp8678
Rp8679
(I3
S'|'
p8680
NNNI3
I1
I0
tp8681
bS'F27'
p8682
tp8683
Rp8684
g8675
sg8
(g9
(S'S3'
p8685
I0
I1
tp8686
Rp8687
(I3
S'|'
p8688
NNNI3
I1
I0
tp8689
bS'F25'
p8690
tp8691
Rp8692
(dp8693
ssg1979
(dp8694
g8
(g9
(S'S3'
p8695
I0
I1
tp8696
Rp8697
(I3
S'|'
p8698
NNNI3
I1
I0
tp8699
bS'F26'
p8700
tp8701
Rp8702
g8693
sg8
(g9
(S'S3'
p8703
I0
I1
tp8704
Rp8705
(I3
S'|'
p8706
NNNI3
I1
I0
tp8707
bS'F24'
p8708
tp8709
Rp8710
(dp8711
ssg1988
(dp8712
g8
(g9
(S'S7'
p8713
I0
I1
tp8714
Rp8715
(I3
S'|'
p8716
NNNI7
I1
I0
tp8717
bS'F23+R33'
p8718
tp8719
Rp8720
g6954
sg8
(g9
(S'S3'
p8721
I0
I1
tp8722
Rp8723
(I3
S'|'
p8724
NNNI3
I1
I0
tp8725
bS'F25'
p8726
tp8727
Rp8728
g8711
ssg1997
(dp8729
g8
(g9
(S'S3'
p8730
I0
I1
tp8731
Rp8732
(I3
S'|'
p8733
NNNI3
I1
I0
tp8734
bS'F30'
p8735
tp8736
Rp8737
(dp8738
sg8
(g9
(S'S3'
p8739
I0
I1
tp8740
Rp8741
(I3
S'|'
p8742
NNNI3
I1
I0
tp8743
bS'F27'
p8744
tp8745
Rp8746
g8666
ssg2006
(dp8747
g8
(g9
(S'S3'
p8748
I0
I1
tp8749
Rp8750
(I3
S'|'
p8751
NNNI3
I1
I0
tp8752
bS'227'
p8753
tp8754
Rp8755
(dp8756
sg8
(g9
(S'S3'
p8757
I0
I1
tp8758
Rp8759
(I3
S'|'
p8760
NNNI3
I1
I0
tp8761
bS'121'
p8762
tp8763
Rp8764
(dp8765
sg8
(g9
(S'S3'
p8766
I0
I1
tp8767
Rp8768
(I3
S'|'
p8769
NNNI3
I1
I0
tp8770
bS'123'
p8771
tp8772
Rp8773
(dp8774
sg8
(g9
(S'S3'
p8775
I0
I1
tp8776
Rp8777
(I3
S'|'
p8778
NNNI3
I1
I0
tp8779
bS'119'
p8780
tp8781
Rp8782
(dp8783
ssg2015
(dp8784
g8
(g9
(S'S3'
p8785
I0
I1
tp8786
Rp8787
(I3
S'|'
p8788
NNNI3
I1
I0
tp8789
bS'120'
p8790
tp8791
Rp8792
g8765
sg8
(g9
(S'S3'
p8793
I0
I1
tp8794
Rp8795
(I3
S'|'
p8796
NNNI3
I1
I0
tp8797
bS'122'
p8798
tp8799
Rp8800
(dp8801
ssg2024
(dp8802
g8
(g9
(S'S3'
p8803
I0
I1
tp8804
Rp8805
(I3
S'|'
p8806
NNNI3
I1
I0
tp8807
bS'121'
p8808
tp8809
Rp8810
g8801
sg8
(g9
(S'S3'
p8811
I0
I1
tp8812
Rp8813
(I3
S'|'
p8814
NNNI3
I1
I0
tp8815
bS'123'
p8816
tp8817
Rp8818
(dp8819
ssg2033
(dp8820
g8
(g9
(S'S3'
p8821
I0
I1
tp8822
Rp8823
(I3
S'|'
p8824
NNNI3
I1
I0
tp8825
bS'120'
p8826
tp8827
Rp8828
g8774
sg8
(g9
(S'S3'
p8829
I0
I1
tp8830
Rp8831
(I3
S'|'
p8832
NNNI3
I1
I0
tp8833
bS'122'
p8834
tp8835
Rp8836
g8819
sg8
(g9
(S'S3'
p8837
I0
I1
tp8838
Rp8839
(I3
S'|'
p8840
NNNI3
I1
I0
tp8841
bS'124'
p8842
tp8843
Rp8844
(dp8845
sg8
(g9
(S'S19'
p8846
I0
I1
tp8847
Rp8848
(I3
S'|'
p8849
NNNI19
I1
I0
tp8850
bS'127+725+902+A27+R16'
p8851
tp8852
Rp8853
g6608
ssg2042
(dp8854
g8
(g9
(S'S3'
p8855
I0
I1
tp8856
Rp8857
(I3
S'|'
p8858
NNNI3
I1
I0
tp8859
bS'123'
p8860
tp8861
Rp8862
g8845
sg8
(g9
(S'S7'
p8863
I0
I1
tp8864
Rp8865
(I3
S'|'
p8866
NNNI7
I1
I0
tp8867
bS'125+A24'
p8868
tp8869
Rp8870
g7126
ssg2051
(dp8871
g8
(g9
(S'S7'
p8872
I0
I1
tp8873
Rp8874
(I3
S'|'
p8875
NNNI7
I1
I0
tp8876
bS'125+A24'
p8877
tp8878
Rp8879
g7135
sg8
(g9
(S'S19'
p8880
I0
I1
tp8881
Rp8882
(I3
S'|'
p8883
NNNI19
I1
I0
tp8884
bS'127+725+902+A27+R16'
p8885
tp8886
Rp8887
g6617
ssg2060
(dp8888
g8
(g9
(S'S3'
p8889
I0
I1
tp8890
Rp8891
(I3
S'|'
p8892
NNNI3
I1
I0
tp8893
bS'129'
p8894
tp8895
Rp8896
(dp8897
sg8
(g9
(S'S11'
p8898
I0
I1
tp8899
Rp8900
(I3
S'|'
p8901
NNNI11
I1
I0
tp8902
bS'132+D19+L02'
p8903
tp8904
Rp8905
g7932
sg8
(g9
(S'S19'
p8906
I0
I1
tp8907
Rp8908
(I3
S'|'
p8909
NNNI19
I1
I0
tp8910
bS'127+725+902+A27+R16'
p8911
tp8912
Rp8913
g6626
ssg2069
(dp8914
g8
(g9
(S'S3'
p8915
I0
I1
tp8916
Rp8917
(I3
S'|'
p8918
NNNI3
I1
I0
tp8919
bS'128'
p8920
tp8921
Rp8922
g8897
sg8
(g9
(S'S3'
p8923
I0
I1
tp8924
Rp8925
(I3
S'|'
p8926
NNNI3
I1
I0
tp8927
bS'130'
p8928
tp8929
Rp8930
g6377
ssg2078
(dp8931
g8
(g9
(S'S3'
p8932
I0
I1
tp8933
Rp8934
(I3
S'|'
p8935
NNNI3
I1
I0
tp8936
bS'R03'
p8937
tp8938
Rp8939
(dp8940
ssg2087
(dp8941
g8
(g9
(S'S3'
p8942
I0
I1
tp8943
Rp8944
(I3
S'|'
p8945
NNNI3
I1
I0
tp8946
bS'R01'
p8947
tp8948
Rp8949
g8940
sg8
(g9
(S'S3'
p8950
I0
I1
tp8951
Rp8952
(I3
S'|'
p8953
NNNI3
I1
I0
tp8954
bS'R04'
p8955
tp8956
Rp8957
(dp8958
ssg2096
(dp8959
g8
(g9
(S'S3'
p8960
I0
I1
tp8961
Rp8962
(I3
S'|'
p8963
NNNI3
I1
I0
tp8964
bS'R04'
p8965
tp8966
Rp8967
(dp8968
sg8
(g9
(S'S3'
p8969
I0
I1
tp8970
Rp8971
(I3
S'|'
p8972
NNNI3
I1
I0
tp8973
bS'R06'
p8974
tp8975
Rp8976
(dp8977
ssg2105
(dp8978
g8
(g9
(S'S3'
p8979
I0
I1
tp8980
Rp8981
(I3
S'|'
p8982
NNNI3
I1
I0
tp8983
bS'R03'
p8984
tp8985
Rp8986
g8958
sg8
(g9
(S'S3'
p8987
I0
I1
tp8988
Rp8989
(I3
S'|'
p8990
NNNI3
I1
I0
tp8991
bS'R05'
p8992
tp8993
Rp8994
g8968
ssg2114
(dp8995
g8
(g9
(S'S3'
p8996
I0
I1
tp8997
Rp8998
(I3
S'|'
p8999
NNNI3
I1
I0
tp9000
bS'R08'
p9001
tp9002
Rp9003
(dp9004
sg8
(g9
(S'S3'
p9005
I0
I1
tp9006
Rp9007
(I3
S'|'
p9008
NNNI3
I1
I0
tp9009
bS'R05'
p9010
tp9011
Rp9012
g8977
ssg2123
(dp9013
g8
(g9
(S'S7'
p9014
I0
I1
tp9015
Rp9016
(I3
S'|'
p9017
NNNI7
I1
I0
tp9018
bS'718+R09'
p9019
tp9020
Rp9021
g4382
sg8
(g9
(S'S3'
p9022
I0
I1
tp9023
Rp9024
(I3
S'|'
p9025
NNNI3
I1
I0
tp9026
bS'R06'
p9027
tp9028
Rp9029
g9004
ssg2132
(dp9030
g8
(g9
(S'S3'
p9031
I0
I1
tp9032
Rp9033
(I3
S'|'
p9034
NNNI3
I1
I0
tp9035
bS'621'
p9036
tp9037
Rp9038
g7639
sg8
(g9
(S'S7'
p9039
I0
I1
tp9040
Rp9041
(I3
S'|'
p9042
NNNI7
I1
I0
tp9043
bS'222+415'
p9044
tp9045
Rp9046
(dp9047
ssg2141
(dp9048
g8
(g9
(S'S3'
p9049
I0
I1
tp9050
Rp9051
(I3
S'|'
p9052
NNNI3
I1
I0
tp9053
bS'411'
p9054
tp9055
Rp9056
(dp9057
sg8
(g9
(S'S3'
p9058
I0
I1
tp9059
Rp9060
(I3
S'|'
p9061
NNNI3
I1
I0
tp9062
bS'409'
p9063
tp9064
Rp9065
(dp9066
ssg2150
(dp9067
g8
(g9
(S'S3'
p9068
I0
I1
tp9069
Rp9070
(I3
S'|'
p9071
NNNI3
I1
I0
tp9072
bS'410'
p9073
tp9074
Rp9075
g9057
sg8
(g9
(S'S3'
p9076
I0
I1
tp9077
Rp9078
(I3
S'|'
p9079
NNNI3
I1
I0
tp9080
bS'412'
p9081
tp9082
Rp9083
(dp9084
ssg2159
(dp9085
g8
(g9
(S'S3'
p9086
I0
I1
tp9087
Rp9088
(I3
S'|'
p9089
NNNI3
I1
I0
tp9090
bS'411'
p9091
tp9092
Rp9093
g9084
sg8
(g9
(S'S3'
p9094
I0
I1
tp9095
Rp9096
(I3
S'|'
p9097
NNNI3
I1
I0
tp9098
bS'413'
p9099
tp9100
Rp9101
(dp9102
ssg2168
(dp9103
g8
(g9
(S'S7'
p9104
I0
I1
tp9105
Rp9106
(I3
S'|'
p9107
NNNI7
I1
I0
tp9108
bS'414+D11'
p9109
tp9110
Rp9111
(dp9112
sg8
(g9
(S'S3'
p9113
I0
I1
tp9114
Rp9115
(I3
S'|'
p9116
NNNI3
I1
I0
tp9117
bS'412'
p9118
tp9119
Rp9120
g9102
ssg2177
(dp9121
g8
(g9
(S'S15'
p9122
I0
I1
tp9123
Rp9124
(I3
S'|'
p9125
NNNI15
I1
I0
tp9126
bS'229+418+A38+M22'
p9127
tp9128
Rp9129
(dp9130
sg8
(g9
(S'S3'
p9131
I0
I1
tp9132
Rp9133
(I3
S'|'
p9134
NNNI3
I1
I0
tp9135
bS'420'
p9136
tp9137
Rp9138
(dp9139
ssg2186
(dp9140
g8
(g9
(S'S3'
p9141
I0
I1
tp9142
Rp9143
(I3
S'|'
p9144
NNNI3
I1
I0
tp9145
bS'L20'
p9146
tp9147
Rp9148
(dp9149
sg8
(g9
(S'S7'
p9150
I0
I1
tp9151
Rp9152
(I3
S'|'
p9153
NNNI7
I1
I0
tp9154
bS'L17+M08'
p9155
tp9156
Rp9157
(dp9158
ssg2195
(dp9159
g8
(g9
(S'S3'
p9160
I0
I1
tp9161
Rp9162
(I3
S'|'
p9163
NNNI3
I1
I0
tp9164
bS'L15'
p9165
tp9166
Rp9167
(dp9168
sg8
(g9
(S'S3'
p9169
I0
I1
tp9170
Rp9171
(I3
S'|'
p9172
NNNI3
I1
I0
tp9173
bS'L13'
p9174
tp9175
Rp9176
(dp9177
ssg2204
(dp9178
g8
(g9
(S'S3'
p9179
I0
I1
tp9180
Rp9181
(I3
S'|'
p9182
NNNI3
I1
I0
tp9183
bS'L14'
p9184
tp9185
Rp9186
g9168
sg8
(g9
(S'S3'
p9187
I0
I1
tp9188
Rp9189
(I3
S'|'
p9190
NNNI3
I1
I0
tp9191
bS'L16'
p9192
tp9193
Rp9194
(dp9195
ssg2213
(dp9196
g8
(g9
(S'S3'
p9197
I0
I1
tp9198
Rp9199
(I3
S'|'
p9200
NNNI3
I1
I0
tp9201
bS'L15'
p9202
tp9203
Rp9204
g9195
sg8
(g9
(S'S7'
p9205
I0
I1
tp9206
Rp9207
(I3
S'|'
p9208
NNNI7
I1
I0
tp9209
bS'L17+M08'
p9210
tp9211
Rp9212
(dp9213
ssg2222
(dp9214
g8
(g9
(S'S7'
p9215
I0
I1
tp9216
Rp9217
(I3
S'|'
p9218
NNNI7
I1
I0
tp9219
bS'G29+L10'
p9220
tp9221
Rp9222
(dp9223
sg8
(g9
(S'S3'
p9224
I0
I1
tp9225
Rp9226
(I3
S'|'
p9227
NNNI3
I1
I0
tp9228
bS'L12'
p9229
tp9230
Rp9231
(dp9232
ssg2231
(dp9233
g8
(g9
(S'S3'
p9234
I0
I1
tp9235
Rp9236
(I3
S'|'
p9237
NNNI3
I1
I0
tp9238
bS'L11'
p9239
tp9240
Rp9241
g9232
sg8
(g9
(S'S3'
p9242
I0
I1
tp9243
Rp9244
(I3
S'|'
p9245
NNNI3
I1
I0
tp9246
bS'L13'
p9247
tp9248
Rp9249
(dp9250
ssg2240
(dp9251
g8
(g9
(S'S3'
p9252
I0
I1
tp9253
Rp9254
(I3
S'|'
p9255
NNNI3
I1
I0
tp9256
bS'L14'
p9257
tp9258
Rp9259
g9177
sg8
(g9
(S'S3'
p9260
I0
I1
tp9261
Rp9262
(I3
S'|'
p9263
NNNI3
I1
I0
tp9264
bS'L12'
p9265
tp9266
Rp9267
g9250
ssg2249
(dp9268
g8
(g9
(S'S7'
p9269
I0
I1
tp9270
Rp9271
(I3
S'|'
p9272
NNNI7
I1
I0
tp9273
bS'718+R09'
p9274
tp9275
Rp9276
g4364
sg8
(g9
(S'S3'
p9277
I0
I1
tp9278
Rp9279
(I3
S'|'
p9280
NNNI3
I1
I0
tp9281
bS'G24'
p9282
tp9283
Rp9284
g3839
sg8
(g9
(S'S7'
p9285
I0
I1
tp9286
Rp9287
(I3
S'|'
p9288
NNNI7
I1
I0
tp9289
bS'630+F11'
p9290
tp9291
Rp9292
(dp9293
sg8
(g9
(S'S3'
p9294
I0
I1
tp9295
Rp9296
(I3
S'|'
p9297
NNNI3
I1
I0
tp9298
bS'720'
p9299
tp9300
Rp9301
(dp9302
sg8
(g9
(S'S3'
p9303
I0
I1
tp9304
Rp9305
(I3
S'|'
p9306
NNNI3
I1
I0
tp9307
bS'G21'
p9308
tp9309
Rp9310
g3877
ssg2258
(dp9311
g8
(g9
(S'S3'
p9312
I0
I1
tp9313
Rp9314
(I3
S'|'
p9315
NNNI3
I1
I0
tp9316
bS'R44'
p9317
tp9318
Rp9319
(dp9320
ssg2267
(dp9321
g8
(g9
(S'S3'
p9322
I0
I1
tp9323
Rp9324
(I3
S'|'
p9325
NNNI3
I1
I0
tp9326
bS'D10'
p9327
tp9328
Rp9329
(dp9330
sg8
(g9
(S'S7'
p9331
I0
I1
tp9332
Rp9333
(I3
S'|'
p9334
NNNI7
I1
I0
tp9335
bS'222+415'
p9336
tp9337
Rp9338
(dp9339
sg8
(g9
(S'S3'
p9340
I0
I1
tp9341
Rp9342
(I3
S'|'
p9343
NNNI3
I1
I0
tp9344
bS'D12'
p9345
tp9346
Rp9347
(dp9348
sg8
(g9
(S'S3'
p9349
I0
I1
tp9350
Rp9351
(I3
S'|'
p9352
NNNI3
I1
I0
tp9353
bS'413'
p9354
tp9355
Rp9356
g9112
ssg2276
(dp9357
g8
(g9
(S'S3'
p9358
I0
I1
tp9359
Rp9360
(I3
S'|'
p9361
NNNI3
I1
I0
tp9362
bS'R45'
p9363
tp9364
Rp9365
g9320
sg8
(g9
(S'S3'
p9366
I0
I1
tp9367
Rp9368
(I3
S'|'
p9369
NNNI3
I1
I0
tp9370
bS'R43'
p9371
tp9372
Rp9373
g8121
ssg2285
(dp9374
g8
(g9
(S'S3'
p9375
I0
I1
tp9376
Rp9377
(I3
S'|'
p9378
NNNI3
I1
I0
tp9379
bS'D22'
p9380
tp9381
Rp9382
(dp9383
sg8
(g9
(S'S15'
p9384
I0
I1
tp9385
Rp9386
(I3
S'|'
p9387
NNNI15
I1
I0
tp9388
bS'639+M20+Q01+R23'
p9389
tp9390
Rp9391
g8561
sg8
(g9
(S'S7'
p9392
I0
I1
tp9393
Rp9394
(I3
S'|'
p9395
NNNI7
I1
I0
tp9396
bS'239+S04'
p9397
tp9398
Rp9399
(dp9400
sg8
(g9
(S'S3'
p9401
I0
I1
tp9402
Rp9403
(I3
S'|'
p9404
NNNI3
I1
I0
tp9405
bS'D25'
p9406
tp9407
Rp9408
(dp9409
sg8
(g9
(S'S3'
p9410
I0
I1
tp9411
Rp9412
(I3
S'|'
p9413
NNNI3
I1
I0
tp9414
bS'234'
p9415
tp9416
Rp9417
g5795
sg8
(g9
(S'S3'
p9418
I0
I1
tp9419
Rp9420
(I3
S'|'
p9421
NNNI3
I1
I0
tp9422
bS'236'
p9423
tp9424
Rp9425
g5823
sg8
(g9
(S'S3'
p9426
I0
I1
tp9427
Rp9428
(I3
S'|'
p9429
NNNI3
I1
I0
tp9430
bS'R30'
p9431
tp9432
Rp9433
g6801
sg8
(g9
(S'S3'
p9434
I0
I1
tp9435
Rp9436
(I3
S'|'
p9437
NNNI3
I1
I0
tp9438
bS'R36'
p9439
tp9440
Rp9441
g6757
sg8
(g9
(S'S3'
p9442
I0
I1
tp9443
Rp9444
(I3
S'|'
p9445
NNNI3
I1
I0
tp9446
bS'R32'
p9447
tp9448
Rp9449
g6838
ssg2294
(dp9450
g8
(g9
(S'S3'
p9451
I0
I1
tp9452
Rp9453
(I3
S'|'
p9454
NNNI3
I1
I0
tp9455
bS'M11'
p9456
tp9457
Rp9458
g7987
sg8
(g9
(S'S3'
p9459
I0
I1
tp9460
Rp9461
(I3
S'|'
p9462
NNNI3
I1
I0
tp9463
bS'M13'
p9464
tp9465
Rp9466
g8032
ssg2303
(dp9467
g8
(g9
(S'S3'
p9468
I0
I1
tp9469
Rp9470
(I3
S'|'
p9471
NNNI3
I1
I0
tp9472
bS'M13'
p9473
tp9474
Rp9475
g8041
sg8
(g9
(S'S3'
p9476
I0
I1
tp9477
Rp9478
(I3
S'|'
p9479
NNNI3
I1
I0
tp9480
bS'M16'
p9481
tp9482
Rp9483
(dp9484
ssg2312
(dp9485
g8
(g9
(S'S3'
p9486
I0
I1
tp9487
Rp9488
(I3
S'|'
p9489
NNNI3
I1
I0
tp9490
bS'M11'
p9491
tp9492
Rp9493
g8004
sg8
(g9
(S'S7'
p9494
I0
I1
tp9495
Rp9496
(I3
S'|'
p9497
NNNI7
I1
I0
tp9498
bS'F15+M18'
p9499
tp9500
Rp9501
g4730
sg8
(g9
(S'S3'
p9502
I0
I1
tp9503
Rp9504
(I3
S'|'
p9505
NNNI3
I1
I0
tp9506
bS'M14'
p9507
tp9508
Rp9509
g9484
ssg2321
(dp9510
g8
(g9
(S'S7'
p9511
I0
I1
tp9512
Rp9513
(I3
S'|'
p9514
NNNI7
I1
I0
tp9515
bS'640+M21'
p9516
tp9517
Rp9518
g6520
sg8
(g9
(S'S3'
p9519
I0
I1
tp9520
Rp9521
(I3
S'|'
p9522
NNNI3
I1
I0
tp9523
bS'M23'
p9524
tp9525
Rp9526
g5042
sg8
(g9
(S'S3'
p9527
I0
I1
tp9528
Rp9529
(I3
S'|'
p9530
NNNI3
I1
I0
tp9531
bS'A40'
p9532
tp9533
Rp9534
g7425
sg8
(g9
(S'S11'
p9535
I0
I1
tp9536
Rp9537
(I3
S'|'
p9538
NNNI11
I1
I0
tp9539
bS'228+A36+E01'
p9540
tp9541
Rp9542
g8443
sg8
(g9
(S'S3'
p9543
I0
I1
tp9544
Rp9545
(I3
S'|'
p9546
NNNI3
I1
I0
tp9547
bS'230'
p9548
tp9549
Rp9550
g5859
sg8
(g9
(S'S3'
p9551
I0
I1
tp9552
Rp9553
(I3
S'|'
p9554
NNNI3
I1
I0
tp9555
bS'419'
p9556
tp9557
Rp9558
g9130
ssg2330
(dp9559
g8
(g9
(S'S3'
p9560
I0
I1
tp9561
Rp9562
(I3
S'|'
p9563
NNNI3
I1
I0
tp9564
bS'A28'
p9565
tp9566
Rp9567
(dp9568
sg8
(g9
(S'S3'
p9569
I0
I1
tp9570
Rp9571
(I3
S'|'
p9572
NNNI3
I1
I0
tp9573
bS'A30'
p9574
tp9575
Rp9576
g7799
sg8
(g9
(S'S11'
p9577
I0
I1
tp9578
Rp9579
(I3
S'|'
p9580
NNNI11
I1
I0
tp9581
bS'132+D19+L02'
p9582
tp9583
Rp9584
g7915
sg8
(g9
(S'S7'
p9585
I0
I1
tp9586
Rp9587
(I3
S'|'
p9588
NNNI7
I1
I0
tp9589
bS'A32+D20'
p9590
tp9591
Rp9592
(dp9593
ssg2339
(dp9594
g8
(g9
(S'S7'
p9595
I0
I1
tp9596
Rp9597
(I3
S'|'
p9598
NNNI7
I1
I0
tp9599
bS'710+G14'
p9600
tp9601
Rp9602
(dp9603
sg8
(g9
(S'S3'
p9604
I0
I1
tp9605
Rp9606
(I3
S'|'
p9607
NNNI3
I1
I0
tp9608
bS'B06'
p9609
tp9610
Rp9611
(dp9612
ssg2348
(dp9613
g8
(g9
(S'S11'
p9614
I0
I1
tp9615
Rp9616
(I3
S'|'
p9617
NNNI11
I1
I0
tp9618
bS'629+B08+R11'
p9619
tp9620
Rp9621
g3985
sg8
(g9
(S'S3'
p9622
I0
I1
tp9623
Rp9624
(I3
S'|'
p9625
NNNI3
I1
I0
tp9626
bS'B04'
p9627
tp9628
Rp9629
g9612
ssg2357
(dp9630
g8
(g9
(S'S3'
p9631
I0
I1
tp9632
Rp9633
(I3
S'|'
p9634
NNNI3
I1
I0
tp9635
bS'F12'
p9636
tp9637
Rp9638
g7460
sg8
(g9
(S'S3'
p9639
I0
I1
tp9640
Rp9641
(I3
S'|'
p9642
NNNI3
I1
I0
tp9643
bS'D15'
p9644
tp9645
Rp9646
(dp9647
sg8
(g9
(S'S3'
p9648
I0
I1
tp9649
Rp9650
(I3
S'|'
p9651
NNNI3
I1
I0
tp9652
bS'A25'
p9653
tp9654
Rp9655
(dp9656
sg8
(g9
(S'S7'
p9657
I0
I1
tp9658
Rp9659
(I3
S'|'
p9660
NNNI7
I1
I0
tp9661
bS'125+A24'
p9662
tp9663
Rp9664
g7082
ssg2366
(dp9665
g8
(g9
(S'S3'
p9666
I0
I1
tp9667
Rp9668
(I3
S'|'
p9669
NNNI3
I1
I0
tp9670
bS'F12'
p9671
tp9672
Rp9673
g7469
sg8
(g9
(S'S3'
p9674
I0
I1
tp9675
Rp9676
(I3
S'|'
p9677
NNNI3
I1
I0
tp9678
bS'D14'
p9679
tp9680
Rp9681
g9647
sg8
(g9
(S'S3'
p9682
I0
I1
tp9683
Rp9684
(I3
S'|'
p9685
NNNI3
I1
I0
tp9686
bS'B10'
p9687
tp9688
Rp9689
(dp9690
sg8
(g9
(S'S7'
p9691
I0
I1
tp9692
Rp9693
(I3
S'|'
p9694
NNNI7
I1
I0
tp9695
bS'724+D16'
p9696
tp9697
Rp9698
g4748
ssg2375
(dp9699
g8
(g9
(S'S7'
p9700
I0
I1
tp9701
Rp9702
(I3
S'|'
p9703
NNNI7
I1
I0
tp9704
bS'414+D11'
p9705
tp9706
Rp9707
g9330
sg8
(g9
(S'S3'
p9708
I0
I1
tp9709
Rp9710
(I3
S'|'
p9711
NNNI3
I1
I0
tp9712
bS'D09'
p9713
tp9714
Rp9715
g7281
ssg2384
(dp9716
g8
(g9
(S'S7'
p9717
I0
I1
tp9718
Rp9719
(I3
S'|'
p9720
NNNI7
I1
I0
tp9721
bS'A12+D13'
p9722
tp9723
Rp9724
g4812
sg8
(g9
(S'S7'
p9725
I0
I1
tp9726
Rp9727
(I3
S'|'
p9728
NNNI7
I1
I0
tp9729
bS'414+D11'
p9730
tp9731
Rp9732
g9348
ssg2393
(dp9733
g8
(g9
(S'S7'
p9734
I0
I1
tp9735
Rp9736
(I3
S'|'
p9737
NNNI7
I1
I0
tp9738
bS'D17+R17'
p9739
tp9740
Rp9741
g4238
sg8
(g9
(S'S11'
p9742
I0
I1
tp9743
Rp9744
(I3
S'|'
p9745
NNNI11
I1
I0
tp9746
bS'132+D19+L02'
p9747
tp9748
Rp9749
g7890
ssg2402
(dp9750
g8
(g9
(S'S3'
p9751
I0
I1
tp9752
Rp9753
(I3
S'|'
p9754
NNNI3
I1
I0
tp9755
bS'A46'
p9756
tp9757
Rp9758
g5224
sg8
(g9
(S'S3'
p9759
I0
I1
tp9760
Rp9761
(I3
S'|'
p9762
NNNI3
I1
I0
tp9763
bS'A44'
p9764
tp9765
Rp9766
g7353
sg8
(g9
(S'S3'
p9767
I0
I1
tp9768
Rp9769
(I3
S'|'
p9770
NNNI3
I1
I0
tp9771
bS'S03'
p9772
tp9773
Rp9774
(dp9775
ssg2411
(dp9776
g8
(g9
(S'S3'
p9777
I0
I1
tp9778
Rp9779
(I3
S'|'
p9780
NNNI3
I1
I0
tp9781
bS'253'
p9782
tp9783
Rp9784
(dp9785
sg8
(g9
(S'S3'
p9786
I0
I1
tp9787
Rp9788
(I3
S'|'
p9789
NNNI3
I1
I0
tp9790
bS'251'
p9791
tp9792
Rp9793
(dp9794
ssg2420
(dp9795
g8
(g9
(S'S3'
p9796
I0
I1
tp9797
Rp9798
(I3
S'|'
p9799
NNNI3
I1
I0
tp9800
bS'252'
p9801
tp9802
Rp9803
g9785
sg8
(g9
(S'S7'
p9804
I0
I1
tp9805
Rp9806
(I3
S'|'
p9807
NNNI7
I1
I0
tp9808
bS'254+L26'
p9809
tp9810
Rp9811
g5914
ssg2429
(dp9812
g8
(g9
(S'S3'
p9813
I0
I1
tp9814
Rp9815
(I3
S'|'
p9816
NNNI3
I1
I0
tp9817
bS'251'
p9818
tp9819
Rp9820
(dp9821
sg8
(g9
(S'S7'
p9822
I0
I1
tp9823
Rp9824
(I3
S'|'
p9825
NNNI7
I1
I0
tp9826
bS'239+S04'
p9827
tp9828
Rp9829
(dp9830
sg8
(g9
(S'S3'
p9831
I0
I1
tp9832
Rp9833
(I3
S'|'
p9834
NNNI3
I1
I0
tp9835
bS'249'
p9836
tp9837
Rp9838
g5389
ssg2438
(dp9839
g8
(g9
(S'S3'
p9840
I0
I1
tp9841
Rp9842
(I3
S'|'
p9843
NNNI3
I1
I0
tp9844
bS'252'
p9845
tp9846
Rp9847
g9794
sg8
(g9
(S'S3'
p9848
I0
I1
tp9849
Rp9850
(I3
S'|'
p9851
NNNI3
I1
I0
tp9852
bS'250'
p9853
tp9854
Rp9855
g9821
ssg2447
(dp9856
g8
(g9
(S'S3'
p9857
I0
I1
tp9858
Rp9859
(I3
S'|'
p9860
NNNI3
I1
I0
tp9861
bS'257'
p9862
tp9863
Rp9864
(dp9865
sg8
(g9
(S'S3'
p9866
I0
I1
tp9867
Rp9868
(I3
S'|'
p9869
NNNI3
I1
I0
tp9870
bS'255'
p9871
tp9872
Rp9873
(dp9874
ssg2456
(dp9875
g8
(g9
(S'S3'
p9876
I0
I1
tp9877
Rp9878
(I3
S'|'
p9879
NNNI3
I1
I0
tp9880
bS'256'
p9881
tp9882
Rp9883
g9865
ssg2465
(dp9884
g8
(g9
(S'S3'
p9885
I0
I1
tp9886
Rp9887
(I3
S'|'
p9888
NNNI3
I1
I0
tp9889
bS'256'
p9890
tp9891
Rp9892
g9874
sg8
(g9
(S'S7'
p9893
I0
I1
tp9894
Rp9895
(I3
S'|'
p9896
NNNI7
I1
I0
tp9897
bS'254+L26'
p9898
tp9899
Rp9900
g5941
ssg2474
(dp9901
g8
(g9
(S'S3'
p9902
I0
I1
tp9903
Rp9904
(I3
S'|'
p9905
NNNI3
I1
I0
tp9906
bS'505'
p9907
tp9908
Rp9909
(dp9910
sg8
(g9
(S'S3'
p9911
I0
I1
tp9912
Rp9913
(I3
S'|'
p9914
NNNI3
I1
I0
tp9915
bS'503'
p9916
tp9917
Rp9918
(dp9919
ssg2483
(dp9920
g8
(g9
(S'S3'
p9921
I0
I1
tp9922
Rp9923
(I3
S'|'
p9924
NNNI3
I1
I0
tp9925
bS'504'
p9926
tp9927
Rp9928
g9910
sg8
(g9
(S'S3'
p9929
I0
I1
tp9930
Rp9931
(I3
S'|'
p9932
NNNI3
I1
I0
tp9933
bS'213'
p9934
tp9935
Rp9936
(dp9937
ssg2492
(dp9938
g8
(g9
(S'S3'
p9939
I0
I1
tp9940
Rp9941
(I3
S'|'
p9942
NNNI3
I1
I0
tp9943
bS'503'
p9944
tp9945
Rp9946
(dp9947
sg8
(g9
(S'S3'
p9948
I0
I1
tp9949
Rp9950
(I3
S'|'
p9951
NNNI3
I1
I0
tp9952
bS'501'
p9953
tp9954
Rp9955
(dp9956
ssg2501
(dp9957
g8
(g9
(S'S3'
p9958
I0
I1
tp9959
Rp9960
(I3
S'|'
p9961
NNNI3
I1
I0
tp9962
bS'504'
p9963
tp9964
Rp9965
g9919
sg8
(g9
(S'S3'
p9966
I0
I1
tp9967
Rp9968
(I3
S'|'
p9969
NNNI3
I1
I0
tp9970
bS'502'
p9971
tp9972
Rp9973
g9947
ssg2510
(dp9974
g8
(g9
(S'S3'
p9975
I0
I1
tp9976
Rp9977
(I3
S'|'
p9978
NNNI3
I1
I0
tp9979
bS'502'
p9980
tp9981
Rp9982
g9956
ssg2519
(dp9983
g8
(g9
(S'S3'
p9984
I0
I1
tp9985
Rp9986
(I3
S'|'
p9987
NNNI3
I1
I0
tp9988
bS'633'
p9989
tp9990
Rp9991
(dp9992
sg8
(g9
(S'S11'
p9993
I0
I1
tp9994
Rp9995
(I3
S'|'
p9996
NNNI11
I1
I0
tp9997
bS'631+723+901'
p9998
tp9999
Rp10000
(dp10001
ssg2528
(dp10002
g8
(g9
(S'S3'
p10003
I0
I1
tp10004
Rp10005
(I3
S'|'
p10006
NNNI3
I1
I0
tp10007
bS'632'
p10008
tp10009
Rp10010
g9992
sg8
(g9
(S'S3'
p10011
I0
I1
tp10012
Rp10013
(I3
S'|'
p10014
NNNI3
I1
I0
tp10015
bS'634'
p10016
tp10017
Rp10018
(dp10019
ssg2537
(dp10020
g8
(g9
(S'S3'
p10021
I0
I1
tp10022
Rp10023
(I3
S'|'
p10024
NNNI3
I1
I0
tp10025
bS'633'
p10026
tp10027
Rp10028
g10019
sg8
(g9
(S'S11'
p10029
I0
I1
tp10030
Rp10031
(I3
S'|'
p10032
NNNI11
I1
I0
tp10033
bS'635+L03+R20'
p10034
tp10035
Rp10036
g4021
ssg2546
(dp10037
g8
(g9
(S'S7'
p10038
I0
I1
tp10039
Rp10040
(I3
S'|'
p10041
NNNI7
I1
I0
tp10042
bS'637+D21'
p10043
tp10044
Rp10045
g5098
sg8
(g9
(S'S11'
p10046
I0
I1
tp10047
Rp10048
(I3
S'|'
p10049
NNNI11
I1
I0
tp10050
bS'635+L03+R20'
p10051
tp10052
Rp10053
g4030
ssg2555
(dp10054
g8
(g9
(S'S15'
p10055
I0
I1
tp10056
Rp10057
(I3
S'|'
p10058
NNNI15
I1
I0
tp10059
bS'639+M20+Q01+R23'
p10060
tp10061
Rp10062
g8552
sg8
(g9
(S'S7'
p10063
I0
I1
tp10064
Rp10065
(I3
S'|'
p10066
NNNI7
I1
I0
tp10067
bS'637+D21'
p10068
tp10069
Rp10070
g5107
ssg2564
(dp10071
g8
(g9
(S'S3'
p10072
I0
I1
tp10073
Rp10074
(I3
S'|'
p10075
NNNI3
I1
I0
tp10076
bS'405'
p10077
tp10078
Rp10079
g6681
sg8
(g9
(S'S3'
p10080
I0
I1
tp10081
Rp10082
(I3
S'|'
p10083
NNNI3
I1
I0
tp10084
bS'401'
p10085
tp10086
Rp10087
g6710
ssg2573
(dp10088
g8
(g9
(S'S3'
p10089
I0
I1
tp10090
Rp10091
(I3
S'|'
p10092
NNNI3
I1
I0
tp10093
bS'709'
p10094
tp10095
Rp10096
g6991
sg8
(g9
(S'S3'
p10097
I0
I1
tp10098
Rp10099
(I3
S'|'
p10100
NNNI3
I1
I0
tp10101
bS'G21'
p10102
tp10103
Rp10104
g3886
sg8
(g9
(S'S3'
p10105
I0
I1
tp10106
Rp10107
(I3
S'|'
p10108
NNNI3
I1
I0
tp10109
bS'711'
p10110
tp10111
Rp10112
g4202
sg8
(g9
(S'S3'
p10113
I0
I1
tp10114
Rp10115
(I3
S'|'
p10116
NNNI3
I1
I0
tp10117
bS'G08'
p10118
tp10119
Rp10120
g8244
sg8
(g9
(S'S3'
p10121
I0
I1
tp10122
Rp10123
(I3
S'|'
p10124
NNNI3
I1
I0
tp10125
bS'B04'
p10126
tp10127
Rp10128
g9603
sg8
(g9
(S'S3'
p10129
I0
I1
tp10130
Rp10131
(I3
S'|'
p10132
NNNI3
I1
I0
tp10133
bS'G15'
p10134
tp10135
Rp10136
g5487
sg8
(g9
(S'S3'
p10137
I0
I1
tp10138
Rp10139
(I3
S'|'
p10140
NNNI3
I1
I0
tp10141
bS'G13'
p10142
tp10143
Rp10144
g5506
ssg2582
(dp10145
g8
(g9
(S'S3'
p10146
I0
I1
tp10147
Rp10148
(I3
S'|'
p10149
NNNI3
I1
I0
tp10150
bS'A21'
p10151
tp10152
Rp10153
(dp10154
sg8
(g9
(S'S3'
p10155
I0
I1
tp10156
Rp10157
(I3
S'|'
p10158
NNNI3
I1
I0
tp10159
bS'A19'
p10160
tp10161
Rp10162
(dp10163
ssg2591
(dp10164
g8
(g9
(S'S3'
p10165
I0
I1
tp10166
Rp10167
(I3
S'|'
p10168
NNNI3
I1
I0
tp10169
bS'A20'
p10170
tp10171
Rp10172
g10154
sg8
(g9
(S'S3'
p10173
I0
I1
tp10174
Rp10175
(I3
S'|'
p10176
NNNI3
I1
I0
tp10177
bS'A22'
p10178
tp10179
Rp10180
(dp10181
ssg2600
(dp10182
g8
(g9
(S'S3'
p10183
I0
I1
tp10184
Rp10185
(I3
S'|'
p10186
NNNI3
I1
I0
tp10187
bS'A21'
p10188
tp10189
Rp10190
g10181
sg8
(g9
(S'S7'
p10191
I0
I1
tp10192
Rp10193
(I3
S'|'
p10194
NNNI7
I1
I0
tp10195
bS'125+A24'
p10196
tp10197
Rp10198
g7100
ssg2609
(dp10199
g8
(g9
(S'S3'
p10200
I0
I1
tp10201
Rp10202
(I3
S'|'
p10203
NNNI3
I1
I0
tp10204
bS'D14'
p10205
tp10206
Rp10207
g9656
sg8
(g9
(S'S7'
p10208
I0
I1
tp10209
Rp10210
(I3
S'|'
p10211
NNNI7
I1
I0
tp10212
bS'125+A24'
p10213
tp10214
Rp10215
g7109
sg8
(g9
(S'S19'
p10216
I0
I1
tp10217
Rp10218
(I3
S'|'
p10219
NNNI19
I1
I0
tp10220
bS'127+725+902+A27+R16'
p10221
tp10222
Rp10223
g6556
ssg2618
(dp10224
g8
(g9
(S'S7'
p10225
I0
I1
tp10226
Rp10227
(I3
S'|'
p10228
NNNI7
I1
I0
tp10229
bS'A31+L01'
p10230
tp10231
Rp10232
g9568
sg8
(g9
(S'S3'
p10233
I0
I1
tp10234
Rp10235
(I3
S'|'
p10236
NNNI3
I1
I0
tp10237
bS'A30'
p10238
tp10239
Rp10240
g7790
sg8
(g9
(S'S19'
p10241
I0
I1
tp10242
Rp10243
(I3
S'|'
p10244
NNNI19
I1
I0
tp10245
bS'127+725+902+A27+R16'
p10246
tp10247
Rp10248
g6574
ssg2627
(dp10249
g8
(g9
(S'S3'
p10250
I0
I1
tp10251
Rp10252
(I3
S'|'
p10253
NNNI3
I1
I0
tp10254
bS'410'
p10255
tp10256
Rp10257
g9066
sg8
(g9
(S'S3'
p10258
I0
I1
tp10259
Rp10260
(I3
S'|'
p10261
NNNI3
I1
I0
tp10262
bS'408'
p10263
tp10264
Rp10265
g6865
ssg2636
(dp10266
g8
(g9
(S'S3'
p10267
I0
I1
tp10268
Rp10269
(I3
S'|'
p10270
NNNI3
I1
I0
tp10271
bS'N05'
p10272
tp10273
Rp10274
g4859
sg8
(g9
(S'S3'
p10275
I0
I1
tp10276
Rp10277
(I3
S'|'
p10278
NNNI3
I1
I0
tp10279
bS'B17'
p10280
tp10281
Rp10282
(dp10283
sg8
(g9
(S'S3'
p10284
I0
I1
tp10285
Rp10286
(I3
S'|'
p10287
NNNI3
I1
I0
tp10288
bS'B15'
p10289
tp10290
Rp10291
(dp10292
sg8
(g9
(S'S3'
p10293
I0
I1
tp10294
Rp10295
(I3
S'|'
p10296
NNNI3
I1
I0
tp10297
bS'N03'
p10298
tp10299
Rp10300
g4913
ssg2645
(dp10301
g8
(g9
(S'S3'
p10302
I0
I1
tp10303
Rp10304
(I3
S'|'
p10305
NNNI3
I1
I0
tp10306
bS'632'
p10307
tp10308
Rp10309
g10001
sg8
(g9
(S'S7'
p10310
I0
I1
tp10311
Rp10312
(I3
S'|'
p10313
NNNI7
I1
I0
tp10314
bS'630+F11'
p10315
tp10316
Rp10317
(dp10318
sg8
(g9
(S'S11'
p10319
I0
I1
tp10320
Rp10321
(I3
S'|'
p10322
NNNI11
I1
I0
tp10323
bS'635+L03+R20'
p10324
tp10325
Rp10326
g4039
sg8
(g9
(S'S7'
p10327
I0
I1
tp10328
Rp10329
(I3
S'|'
p10330
NNNI7
I1
I0
tp10331
bS'724+D16'
p10332
tp10333
Rp10334
g4757
sg8
(g9
(S'S19'
p10335
I0
I1
tp10336
Rp10337
(I3
S'|'
p10338
NNNI19
I1
I0
tp10339
bS'127+725+902+A27+R16'
p10340
tp10341
Rp10342
g6583
sg8
(g9
(S'S3'
p10343
I0
I1
tp10344
Rp10345
(I3
S'|'
p10346
NNNI3
I1
I0
tp10347
bS'721'
p10348
tp10349
Rp10350
(dp10351
sg8
(g9
(S'S11'
p10352
I0
I1
tp10353
Rp10354
(I3
S'|'
p10355
NNNI11
I1
I0
tp10356
bS'629+B08+R11'
p10357
tp10358
Rp10359
g3940
ssg2654
(dp10360
g8
(g9
(S'S7'
p10361
I0
I1
tp10362
Rp10363
(I3
S'|'
p10364
NNNI7
I1
I0
tp10365
bS'L17+M08'
p10366
tp10367
Rp10368
(dp10369
sg8
(g9
(S'S3'
p10370
I0
I1
tp10371
Rp10372
(I3
S'|'
p10373
NNNI3
I1
I0
tp10374
bS'M05'
p10375
tp10376
Rp10377
(dp10378
ssg2663
(dp10379
g8
(g9
(S'S3'
p10380
I0
I1
tp10381
Rp10382
(I3
S'|'
p10383
NNNI3
I1
I0
tp10384
bS'M05'
p10385
tp10386
Rp10387
(dp10388
sg8
(g9
(S'S3'
p10389
I0
I1
tp10390
Rp10391
(I3
S'|'
p10392
NNNI3
I1
I0
tp10393
bS'M01'
p10394
tp10395
Rp10396
(dp10397
ssg2672
(dp10398
g8
(g9
(S'S3'
p10399
I0
I1
tp10400
Rp10401
(I3
S'|'
p10402
NNNI3
I1
I0
tp10403
bS'M06'
p10404
tp10405
Rp10406
g10378
sg8
(g9
(S'S3'
p10407
I0
I1
tp10408
Rp10409
(I3
S'|'
p10410
NNNI3
I1
I0
tp10411
bS'M04'
p10412
tp10413
Rp10414
g10388
ssg2681
(dp10415
g8
(g9
(S'S3'
p10416
I0
I1
tp10417
Rp10418
(I3
S'|'
p10419
NNNI3
I1
I0
tp10420
bS'M04'
p10421
tp10422
Rp10423
g10397
ssg2690
(dp10424
g8
(g9
(S'S3'
p10425
I0
I1
tp10426
Rp10427
(I3
S'|'
p10428
NNNI3
I1
I0
tp10429
bS'M10'
p10430
tp10431
Rp10432
g8022
sg8
(g9
(S'S7'
p10433
I0
I1
tp10434
Rp10435
(I3
S'|'
p10436
NNNI7
I1
I0
tp10437
bS'L17+M08'
p10438
tp10439
Rp10440
(dp10441
ssg2699
(dp10442
g8
(g9
(S'S3'
p10443
I0
I1
tp10444
Rp10445
(I3
S'|'
p10446
NNNI3
I1
I0
tp10447
bS'G30'
p10448
tp10449
Rp10450
(dp10451
sg8
(g9
(S'S3'
p10452
I0
I1
tp10453
Rp10454
(I3
S'|'
p10455
NNNI3
I1
I0
tp10456
bS'G32'
p10457
tp10458
Rp10459
(dp10460
ssg2708
(dp10461
g8
(g9
(S'S3'
p10462
I0
I1
tp10463
Rp10464
(I3
S'|'
p10465
NNNI3
I1
I0
tp10466
bS'G31'
p10467
tp10468
Rp10469
g10451
sg8
(g9
(S'S7'
p10470
I0
I1
tp10471
Rp10472
(I3
S'|'
p10473
NNNI7
I1
I0
tp10474
bS'G29+L10'
p10475
tp10476
Rp10477
(dp10478
ssg2717
(dp10479
g8
(g9
(S'S3'
p10480
I0
I1
tp10481
Rp10482
(I3
S'|'
p10483
NNNI3
I1
I0
tp10484
bS'G32'
p10485
tp10486
Rp10487
(dp10488
sg8
(g9
(S'S3'
p10489
I0
I1
tp10490
Rp10491
(I3
S'|'
p10492
NNNI3
I1
I0
tp10493
bS'G34'
p10494
tp10495
Rp10496
(dp10497
ssg2726
(dp10498
g8
(g9
(S'S3'
p10499
I0
I1
tp10500
Rp10501
(I3
S'|'
p10502
NNNI3
I1
I0
tp10503
bS'G31'
p10504
tp10505
Rp10506
g10460
sg8
(g9
(S'S3'
p10507
I0
I1
tp10508
Rp10509
(I3
S'|'
p10510
NNNI3
I1
I0
tp10511
bS'G33'
p10512
tp10513
Rp10514
g10488
ssg2735
(dp10515
g8
(g9
(S'S3'
p10516
I0
I1
tp10517
Rp10518
(I3
S'|'
p10519
NNNI3
I1
I0
tp10520
bS'G34'
p10521
tp10522
Rp10523
(dp10524
sg8
(g9
(S'S3'
p10525
I0
I1
tp10526
Rp10527
(I3
S'|'
p10528
NNNI3
I1
I0
tp10529
bS'G36'
p10530
tp10531
Rp10532
(dp10533
ssg2744
(dp10534
g8
(g9
(S'S3'
p10535
I0
I1
tp10536
Rp10537
(I3
S'|'
p10538
NNNI3
I1
I0
tp10539
bS'G33'
p10540
tp10541
Rp10542
g10497
sg8
(g9
(S'S3'
p10543
I0
I1
tp10544
Rp10545
(I3
S'|'
p10546
NNNI3
I1
I0
tp10547
bS'G35'
p10548
tp10549
Rp10550
g10524
ssg2753
(dp10551
g8
(g9
(S'S3'
p10552
I0
I1
tp10553
Rp10554
(I3
S'|'
p10555
NNNI3
I1
I0
tp10556
bS'G35'
p10557
tp10558
Rp10559
g10533
sg8
(g9
(S'S3'
p10560
I0
I1
tp10561
Rp10562
(I3
S'|'
p10563
NNNI3
I1
I0
tp10564
bS'A42'
p10565
tp10566
Rp10567
g5316
ssg2762
(dp10568
g8
(g9
(S'S3'
p10569
I0
I1
tp10570
Rp10571
(I3
S'|'
p10572
NNNI3
I1
I0
tp10573
bS'234'
p10574
tp10575
Rp10576
g5804
sg8
(g9
(S'S3'
p10577
I0
I1
tp10578
Rp10579
(I3
S'|'
p10580
NNNI3
I1
I0
tp10581
bS'420'
p10582
tp10583
Rp10584
(dp10585
sg8
(g9
(S'S3'
p10586
I0
I1
tp10587
Rp10588
(I3
S'|'
p10589
NNNI3
I1
I0
tp10590
bS'231'
p10591
tp10592
Rp10593
g5878
sg8
(g9
(S'S3'
p10594
I0
I1
tp10595
Rp10596
(I3
S'|'
p10597
NNNI3
I1
I0
tp10598
bS'R29'
p10599
tp10600
Rp10601
(dp10602
sg8
(g9
(S'S3'
p10603
I0
I1
tp10604
Rp10605
(I3
S'|'
p10606
NNNI3
I1
I0
tp10607
bS'233'
p10608
tp10609
Rp10610
g5904
ssg2771
(dp10611
g8
(g9
(S'S3'
p10612
I0
I1
tp10613
Rp10614
(I3
S'|'
p10615
NNNI3
I1
I0
tp10616
bS'217'
p10617
tp10618
Rp10619
(dp10620
sg8
(g9
(S'S3'
p10621
I0
I1
tp10622
Rp10623
(I3
S'|'
p10624
NNNI3
I1
I0
tp10625
bS'215'
p10626
tp10627
Rp10628
(dp10629
ssg2780
(dp10630
g8
(g9
(S'S3'
p10631
I0
I1
tp10632
Rp10633
(I3
S'|'
p10634
NNNI3
I1
I0
tp10635
bS'216'
p10636
tp10637
Rp10638
g10620
sg8
(g9
(S'S3'
p10639
I0
I1
tp10640
Rp10641
(I3
S'|'
p10642
NNNI3
I1
I0
tp10643
bS'218'
p10644
tp10645
Rp10646
(dp10647
ssg2789
(dp10648
g8
(g9
(S'S3'
p10649
I0
I1
tp10650
Rp10651
(I3
S'|'
p10652
NNNI3
I1
I0
tp10653
bS'215'
p10654
tp10655
Rp10656
(dp10657
sg8
(g9
(S'S3'
p10658
I0
I1
tp10659
Rp10660
(I3
S'|'
p10661
NNNI3
I1
I0
tp10662
bS'213'
p10663
tp10664
Rp10665
(dp10666
ssg2798
(dp10667
g8
(g9
(S'S3'
p10668
I0
I1
tp10669
Rp10670
(I3
S'|'
p10671
NNNI3
I1
I0
tp10672
bS'216'
p10673
tp10674
Rp10675
g10629
sg8
(g9
(S'S3'
p10676
I0
I1
tp10677
Rp10678
(I3
S'|'
p10679
NNNI3
I1
I0
tp10680
bS'214'
p10681
tp10682
Rp10683
g10657
ssg2807
(dp10684
g8
(g9
(S'S3'
p10685
I0
I1
tp10686
Rp10687
(I3
S'|'
p10688
NNNI3
I1
I0
tp10689
bS'213'
p10690
tp10691
Rp10692
(dp10693
sg8
(g9
(S'S3'
p10694
I0
I1
tp10695
Rp10696
(I3
S'|'
p10697
NNNI3
I1
I0
tp10698
bS'211'
p10699
tp10700
Rp10701
(dp10702
ssg2816
(dp10703
g8
(g9
(S'S3'
p10704
I0
I1
tp10705
Rp10706
(I3
S'|'
p10707
NNNI3
I1
I0
tp10708
bS'214'
p10709
tp10710
Rp10711
g10666
sg8
(g9
(S'S3'
p10712
I0
I1
tp10713
Rp10714
(I3
S'|'
p10715
NNNI3
I1
I0
tp10716
bS'505'
p10717
tp10718
Rp10719
g9937
sg8
(g9
(S'S3'
p10720
I0
I1
tp10721
Rp10722
(I3
S'|'
p10723
NNNI3
I1
I0
tp10724
bS'212'
p10725
tp10726
Rp10727
g10693
ssg2825
(dp10728
g8
(g9
(S'S3'
p10729
I0
I1
tp10730
Rp10731
(I3
S'|'
p10732
NNNI3
I1
I0
tp10733
bS'209'
p10734
tp10735
Rp10736
g8416
sg8
(g9
(S'S3'
p10737
I0
I1
tp10738
Rp10739
(I3
S'|'
p10740
NNNI3
I1
I0
tp10741
bS'211'
p10742
tp10743
Rp10744
(dp10745
ssg2834
(dp10746
g8
(g9
(S'S3'
p10747
I0
I1
tp10748
Rp10749
(I3
S'|'
p10750
NNNI3
I1
I0
tp10751
bS'212'
p10752
tp10753
Rp10754
g10702
sg8
(g9
(S'S3'
p10755
I0
I1
tp10756
Rp10757
(I3
S'|'
p10758
NNNI3
I1
I0
tp10759
bS'210'
p10760
tp10761
Rp10762
g10745
ssg2843
(dp10763
g8
(g9
(S'S3'
p10764
I0
I1
tp10765
Rp10766
(I3
S'|'
p10767
NNNI3
I1
I0
tp10768
bS'217'
p10769
tp10770
Rp10771
g10647
sg8
(g9
(S'S3'
p10772
I0
I1
tp10773
Rp10774
(I3
S'|'
p10775
NNNI3
I1
I0
tp10776
bS'219'
p10777
tp10778
Rp10779
(dp10780
ssg2852
(dp10781
g8
(g9
(S'S3'
p10782
I0
I1
tp10783
Rp10784
(I3
S'|'
p10785
NNNI3
I1
I0
tp10786
bS'218'
p10787
tp10788
Rp10789
g10780
sg8
(g9
(S'S3'
p10790
I0
I1
tp10791
Rp10792
(I3
S'|'
p10793
NNNI3
I1
I0
tp10794
bS'220'
p10795
tp10796
Rp10797
(dp10798
ssg2861
(dp10799
g8
(g9
(S'S7'
p10800
I0
I1
tp10801
Rp10802
(I3
S'|'
p10803
NNNI7
I1
I0
tp10804
bS'A12+D13'
p10805
tp10806
Rp10807
g4794
sg8
(g9
(S'S3'
p10808
I0
I1
tp10809
Rp10810
(I3
S'|'
p10811
NNNI3
I1
I0
tp10812
bS'111'
p10813
tp10814
Rp10815
(dp10816
sg8
(g9
(S'S3'
p10817
I0
I1
tp10818
Rp10819
(I3
S'|'
p10820
NNNI3
I1
I0
tp10821
bS'A07'
p10822
tp10823
Rp10824
g6304
sg8
(g9
(S'S3'
p10825
I0
I1
tp10826
Rp10827
(I3
S'|'
p10828
NNNI3
I1
I0
tp10829
bS'113'
p10830
tp10831
Rp10832
(dp10833
sg8
(g9
(S'S3'
p10834
I0
I1
tp10835
Rp10836
(I3
S'|'
p10837
NNNI3
I1
I0
tp10838
bS'A10'
p10839
tp10840
Rp10841
(dp10842
ssg2870
(dp10843
g8
(g9
(S'S3'
p10844
I0
I1
tp10845
Rp10846
(I3
S'|'
p10847
NNNI3
I1
I0
tp10848
bS'F31'
p10849
tp10850
Rp10851
(dp10852
sg8
(g9
(S'S3'
p10853
I0
I1
tp10854
Rp10855
(I3
S'|'
p10856
NNNI3
I1
I0
tp10857
bS'F29'
p10858
tp10859
Rp10860
g8738
ssg2879
(dp10861
g8
(g9
(S'S3'
p10862
I0
I1
tp10863
Rp10864
(I3
S'|'
p10865
NNNI3
I1
I0
tp10866
bS'F30'
p10867
tp10868
Rp10869
g10852
sg8
(g9
(S'S3'
p10870
I0
I1
tp10871
Rp10872
(I3
S'|'
p10873
NNNI3
I1
I0
tp10874
bS'F32'
p10875
tp10876
Rp10877
(dp10878
ssg2888
(dp10879
g8
(g9
(S'S3'
p10880
I0
I1
tp10881
Rp10882
(I3
S'|'
p10883
NNNI3
I1
I0
tp10884
bS'F31'
p10885
tp10886
Rp10887
g10878
sg8
(g9
(S'S3'
p10888
I0
I1
tp10889
Rp10890
(I3
S'|'
p10891
NNNI3
I1
I0
tp10892
bS'F33'
p10893
tp10894
Rp10895
(dp10896
ssg2897
(dp10897
g8
(g9
(S'S3'
p10898
I0
I1
tp10899
Rp10900
(I3
S'|'
p10901
NNNI3
I1
I0
tp10902
bS'F32'
p10903
tp10904
Rp10905
g10896
sg8
(g9
(S'S3'
p10906
I0
I1
tp10907
Rp10908
(I3
S'|'
p10909
NNNI3
I1
I0
tp10910
bS'F34'
p10911
tp10912
Rp10913
(dp10914
ssg2906
(dp10915
g8
(g9
(S'S3'
p10916
I0
I1
tp10917
Rp10918
(I3
S'|'
p10919
NNNI3
I1
I0
tp10920
bS'F33'
p10921
tp10922
Rp10923
g10914
sg8
(g9
(S'S3'
p10924
I0
I1
tp10925
Rp10926
(I3
S'|'
p10927
NNNI3
I1
I0
tp10928
bS'F35'
p10929
tp10930
Rp10931
(dp10932
ssg2915
(dp10933
g8
(g9
(S'S3'
p10934
I0
I1
tp10935
Rp10936
(I3
S'|'
p10937
NNNI3
I1
I0
tp10938
bS'F34'
p10939
tp10940
Rp10941
g10932
sg8
(g9
(S'S3'
p10942
I0
I1
tp10943
Rp10944
(I3
S'|'
p10945
NNNI3
I1
I0
tp10946
bS'F36'
p10947
tp10948
Rp10949
(dp10950
ssg2924
(dp10951
g8
(g9
(S'S3'
p10952
I0
I1
tp10953
Rp10954
(I3
S'|'
p10955
NNNI3
I1
I0
tp10956
bS'F38'
p10957
tp10958
Rp10959
(dp10960
sg8
(g9
(S'S3'
p10961
I0
I1
tp10962
Rp10963
(I3
S'|'
p10964
NNNI3
I1
I0
tp10965
bS'F35'
p10966
tp10967
Rp10968
g10950
ssg2933
(dp10969
g8
(g9
(S'S3'
p10970
I0
I1
tp10971
Rp10972
(I3
S'|'
p10973
NNNI3
I1
I0
tp10974
bS'F39'
p10975
tp10976
Rp10977
(dp10978
sg8
(g9
(S'S3'
p10979
I0
I1
tp10980
Rp10981
(I3
S'|'
p10982
NNNI3
I1
I0
tp10983
bS'F36'
p10984
tp10985
Rp10986
g10960
ssg2942
(dp10987
g8
(g9
(S'S3'
p10988
I0
I1
tp10989
Rp10990
(I3
S'|'
p10991
NNNI3
I1
I0
tp10992
bS'F38'
p10993
tp10994
Rp10995
g10978
sg8
(g9
(S'S3'
p10996
I0
I1
tp10997
Rp10998
(I3
S'|'
p10999
NNNI3
I1
I0
tp11000
bS'D42'
p11001
tp11002
Rp11003
g6203
ssg2951
(dp11004
g8
(g9
(S'S3'
p11005
I0
I1
tp11006
Rp11007
(I3
S'|'
p11008
NNNI3
I1
I0
tp11009
bS'A65'
p11010
tp11011
Rp11012
(dp11013
sg8
(g9
(S'S3'
p11014
I0
I1
tp11015
Rp11016
(I3
S'|'
p11017
NNNI3
I1
I0
tp11018
bS'A63'
p11019
tp11020
Rp11021
(dp11022
ssg2960
(dp11023
g8
(g9
(S'S3'
p11024
I0
I1
tp11025
Rp11026
(I3
S'|'
p11027
NNNI3
I1
I0
tp11028
bS'A64'
p11029
tp11030
Rp11031
g11013
ssg2969
(dp11032
g8
(g9
(S'S3'
p11033
I0
I1
tp11034
Rp11035
(I3
S'|'
p11036
NNNI3
I1
I0
tp11037
bS'A59'
p11038
tp11039
Rp11040
g4675
sg8
(g9
(S'S3'
p11041
I0
I1
tp11042
Rp11043
(I3
S'|'
p11044
NNNI3
I1
I0
tp11045
bS'A61'
p11046
tp11047
Rp11048
(dp11049
ssg2978
(dp11050
g8
(g9
(S'S3'
p11051
I0
I1
tp11052
Rp11053
(I3
S'|'
p11054
NNNI3
I1
I0
tp11055
bS'H02'
p11056
tp11057
Rp11058
(dp11059
sg8
(g9
(S'S3'
p11060
I0
I1
tp11061
Rp11062
(I3
S'|'
p11063
NNNI3
I1
I0
tp11064
bS'A60'
p11065
tp11066
Rp11067
g11049
sg8
(g9
(S'S3'
p11068
I0
I1
tp11069
Rp11070
(I3
S'|'
p11071
NNNI3
I1
I0
tp11072
bS'A63'
p11073
tp11074
Rp11075
(dp11076
ssg2987
(dp11077
g8
(g9
(S'S3'
p11078
I0
I1
tp11079
Rp11080
(I3
S'|'
p11081
NNNI3
I1
I0
tp11082
bS'A64'
p11083
tp11084
Rp11085
g11022
sg8
(g9
(S'S3'
p11086
I0
I1
tp11087
Rp11088
(I3
S'|'
p11089
NNNI3
I1
I0
tp11090
bS'A61'
p11091
tp11092
Rp11093
g11076
ssg2996
(dp11094
g8
(g9
(S'S3'
p11095
I0
I1
tp11096
Rp11097
(I3
S'|'
p11098
NNNI3
I1
I0
tp11099
bS'416'
p11100
tp11101
Rp11102
g9047
sg8
(g9
(S'S3'
p11103
I0
I1
tp11104
Rp11105
(I3
S'|'
p11106
NNNI3
I1
I0
tp11107
bS'224'
p11108
tp11109
Rp11110
(dp11111
sg8
(g9
(S'S7'
p11112
I0
I1
tp11113
Rp11114
(I3
S'|'
p11115
NNNI7
I1
I0
tp11116
bS'414+D11'
p11117
tp11118
Rp11119
g9339
sg8
(g9
(S'S3'
p11120
I0
I1
tp11121
Rp11122
(I3
S'|'
p11123
NNNI3
I1
I0
tp11124
bS'221'
p11125
tp11126
Rp11127
(dp11128
ssg3005
(dp11129
g8
(g9
(S'S3'
p11130
I0
I1
tp11131
Rp11132
(I3
S'|'
p11133
NNNI3
I1
I0
tp11134
bS'G30'
p11135
tp11136
Rp11137
g10478
sg8
(g9
(S'S3'
p11138
I0
I1
tp11139
Rp11140
(I3
S'|'
p11141
NNNI3
I1
I0
tp11142
bS'L11'
p11143
tp11144
Rp11145
g9223
sg8
(g9
(S'S3'
p11146
I0
I1
tp11147
Rp11148
(I3
S'|'
p11149
NNNI3
I1
I0
tp11150
bS'G28'
p11151
tp11152
Rp11153
g3912
sg8
(g9
(S'S3'
p11154
I0
I1
tp11155
Rp11156
(I3
S'|'
p11157
NNNI3
I1
I0
tp11158
bS'L08'
p11159
tp11160
Rp11161
g6875
ssg3014
(dp11162
g8
(g9
(S'S3'
p11163
I0
I1
tp11164
Rp11165
(I3
S'|'
p11166
NNNI3
I1
I0
tp11167
bS'H10'
p11168
tp11169
Rp11170
g4959
sg8
(g9
(S'S3'
p11171
I0
I1
tp11172
Rp11173
(I3
S'|'
p11174
NNNI3
I1
I0
tp11175
bS'H08'
p11176
tp11177
Rp11178
(dp11179
ssg3023
(dp11180
g8
(g9
(S'S3'
p11181
I0
I1
tp11182
Rp11183
(I3
S'|'
p11184
NNNI3
I1
I0
tp11185
bS'H09'
p11186
tp11187
Rp11188
g11179
sg8
(g9
(S'S3'
p11189
I0
I1
tp11190
Rp11191
(I3
S'|'
p11192
NNNI3
I1
I0
tp11193
bS'H07'
p11194
tp11195
Rp11196
(dp11197
ssg3032
(dp11198
g8
(g9
(S'S3'
p11199
I0
I1
tp11200
Rp11201
(I3
S'|'
p11202
NNNI3
I1
I0
tp11203
bS'H02'
p11204
tp11205
Rp11206
(dp11207
sg8
(g9
(S'S3'
p11208
I0
I1
tp11209
Rp11210
(I3
S'|'
p11211
NNNI3
I1
I0
tp11212
bS'H04'
p11213
tp11214
Rp11215
(dp11216
ssg3041
(dp11217
g8
(g9
(S'S3'
p11218
I0
I1
tp11219
Rp11220
(I3
S'|'
p11221
NNNI3
I1
I0
tp11222
bS'H03'
p11223
tp11224
Rp11225
g11207
sg8
(g9
(S'S3'
p11226
I0
I1
tp11227
Rp11228
(I3
S'|'
p11229
NNNI3
I1
I0
tp11230
bS'A61'
p11231
tp11232
Rp11233
g11059
ssg3050
(dp11234
g8
(g9
(S'S3'
p11235
I0
I1
tp11236
Rp11237
(I3
S'|'
p11238
NNNI3
I1
I0
tp11239
bS'H08'
p11240
tp11241
Rp11242
g11197
sg8
(g9
(S'S3'
p11243
I0
I1
tp11244
Rp11245
(I3
S'|'
p11246
NNNI3
I1
I0
tp11247
bS'H06'
p11248
tp11249
Rp11250
(dp11251
ssg3059
(dp11252
g8
(g9
(S'S3'
p11253
I0
I1
tp11254
Rp11255
(I3
S'|'
p11256
NNNI3
I1
I0
tp11257
bS'H07'
p11258
tp11259
Rp11260
g11251
sg8
(g9
(S'S3'
p11261
I0
I1
tp11262
Rp11263
(I3
S'|'
p11264
NNNI3
I1
I0
tp11265
bS'H04'
p11266
tp11267
Rp11268
(dp11269
ssg3068
(dp11270
g8
(g9
(S'S3'
p11271
I0
I1
tp11272
Rp11273
(I3
S'|'
p11274
NNNI3
I1
I0
tp11275
bS'H03'
p11276
tp11277
Rp11278
g11216
sg8
(g9
(S'S3'
p11279
I0
I1
tp11280
Rp11281
(I3
S'|'
p11282
NNNI3
I1
I0
tp11283
bS'H12'
p11284
tp11285
Rp11286
g4987
sg8
(g9
(S'S3'
p11287
I0
I1
tp11288
Rp11289
(I3
S'|'
p11290
NNNI3
I1
I0
tp11291
bS'H06'
p11292
tp11293
Rp11294
g11269
ssg3077
(dp11295
g8
(g9
(S'S3'
p11296
I0
I1
tp11297
Rp11298
(I3
S'|'
p11299
NNNI3
I1
I0
tp11300
bS'114'
p11301
tp11302
Rp11303
(dp11304
sg8
(g9
(S'S3'
p11305
I0
I1
tp11306
Rp11307
(I3
S'|'
p11308
NNNI3
I1
I0
tp11309
bS'116'
p11310
tp11311
Rp11312
(dp11313
ssg3086
(dp11314
g8
(g9
(S'S3'
p11315
I0
I1
tp11316
Rp11317
(I3
S'|'
p11318
NNNI3
I1
I0
tp11319
bS'115'
p11320
tp11321
Rp11322
g11304
sg8
(g9
(S'S3'
p11323
I0
I1
tp11324
Rp11325
(I3
S'|'
p11326
NNNI3
I1
I0
tp11327
bS'113'
p11328
tp11329
Rp11330
(dp11331
ssg3095
(dp11332
g8
(g9
(S'S3'
p11333
I0
I1
tp11334
Rp11335
(I3
S'|'
p11336
NNNI3
I1
I0
tp11337
bS'116'
p11338
tp11339
Rp11340
(dp11341
sg8
(g9
(S'S3'
p11342
I0
I1
tp11343
Rp11344
(I3
S'|'
p11345
NNNI3
I1
I0
tp11346
bS'118'
p11347
tp11348
Rp11349
(dp11350
ssg3104
(dp11351
g8
(g9
(S'S3'
p11352
I0
I1
tp11353
Rp11354
(I3
S'|'
p11355
NNNI3
I1
I0
tp11356
bS'115'
p11357
tp11358
Rp11359
g11313
sg8
(g9
(S'S3'
p11360
I0
I1
tp11361
Rp11362
(I3
S'|'
p11363
NNNI3
I1
I0
tp11364
bS'117'
p11365
tp11366
Rp11367
g11341
ssg3113
(dp11368
g8
(g9
(S'S7'
p11369
I0
I1
tp11370
Rp11371
(I3
S'|'
p11372
NNNI7
I1
I0
tp11373
bS'112+A09'
p11374
tp11375
Rp11376
g10816
sg8
(g9
(S'S3'
p11377
I0
I1
tp11378
Rp11379
(I3
S'|'
p11380
NNNI3
I1
I0
tp11381
bS'110'
p11382
tp11383
Rp11384
(dp11385
ssg3122
(dp11386
g8
(g9
(S'S3'
p11387
I0
I1
tp11388
Rp11389
(I3
S'|'
p11390
NNNI3
I1
I0
tp11391
bS'109'
p11392
tp11393
Rp11394
g5079
sg8
(g9
(S'S3'
p11395
I0
I1
tp11396
Rp11397
(I3
S'|'
p11398
NNNI3
I1
I0
tp11399
bS'111'
p11400
tp11401
Rp11402
g11385
ssg3131
(dp11403
g8
(g9
(S'S3'
p11404
I0
I1
tp11405
Rp11406
(I3
S'|'
p11407
NNNI3
I1
I0
tp11408
bS'114'
p11409
tp11410
Rp11411
g11331
sg8
(g9
(S'S7'
p11412
I0
I1
tp11413
Rp11414
(I3
S'|'
p11415
NNNI7
I1
I0
tp11416
bS'112+A09'
p11417
tp11418
Rp11419
g10833
ssg3140
(dp11420
g8
(g9
(S'S3'
p11421
I0
I1
tp11422
Rp11423
(I3
S'|'
p11424
NNNI3
I1
I0
tp11425
bS'120'
p11426
tp11427
Rp11428
g8783
sg8
(g9
(S'S3'
p11429
I0
I1
tp11430
Rp11431
(I3
S'|'
p11432
NNNI3
I1
I0
tp11433
bS'118'
p11434
tp11435
Rp11436
(dp11437
ssg3149
(dp11438
g8
(g9
(S'S3'
p11439
I0
I1
tp11440
Rp11441
(I3
S'|'
p11442
NNNI3
I1
I0
tp11443
bS'117'
p11444
tp11445
Rp11446
g11350
sg8
(g9
(S'S3'
p11447
I0
I1
tp11448
Rp11449
(I3
S'|'
p11450
NNNI3
I1
I0
tp11451
bS'119'
p11452
tp11453
Rp11454
g11437
ssg3158
(dp11455
g8
(g9
(S'S3'
p11456
I0
I1
tp11457
Rp11458
(I3
S'|'
p11459
NNNI3
I1
I0
tp11460
bS'R15'
p11461
tp11462
Rp11463
(dp11464
sg8
(g9
(S'S3'
p11465
I0
I1
tp11466
Rp11467
(I3
S'|'
p11468
NNNI3
I1
I0
tp11469
bS'R13'
p11470
tp11471
Rp11472
(dp11473
ssg3167
(dp11474
g8
(g9
(S'S7'
p11475
I0
I1
tp11476
Rp11477
(I3
S'|'
p11478
NNNI7
I1
I0
tp11479
bS'D17+R17'
p11480
tp11481
Rp11482
g4212
sg8
(g9
(S'S3'
p11483
I0
I1
tp11484
Rp11485
(I3
S'|'
p11486
NNNI3
I1
I0
tp11487
bS'R14'
p11488
tp11489
Rp11490
g11464
sg8
(g9
(S'S19'
p11491
I0
I1
tp11492
Rp11493
(I3
S'|'
p11494
NNNI19
I1
I0
tp11495
bS'127+725+902+A27+R16'
p11496
tp11497
Rp11498
g6547
ssg3176
(dp11499
g8
(g9
(S'S11'
p11500
I0
I1
tp11501
Rp11502
(I3
S'|'
p11503
NNNI11
I1
I0
tp11504
bS'629+B08+R11'
p11505
tp11506
Rp11507
g3958
sg8
(g9
(S'S3'
p11508
I0
I1
tp11509
Rp11510
(I3
S'|'
p11511
NNNI3
I1
I0
tp11512
bS'R14'
p11513
tp11514
Rp11515
g11473
ssg3185
(dp11516
g8
(g9
(S'S7'
p11517
I0
I1
tp11518
Rp11519
(I3
S'|'
p11520
NNNI7
I1
I0
tp11521
bS'D17+R17'
p11522
tp11523
Rp11524
g4265
sg8
(g9
(S'S3'
p11525
I0
I1
tp11526
Rp11527
(I3
S'|'
p11528
NNNI3
I1
I0
tp11529
bS'R19'
p11530
tp11531
Rp11532
(dp11533
ssg3194
(dp11534
g8
(g9
(S'S3'
p11535
I0
I1
tp11536
Rp11537
(I3
S'|'
p11538
NNNI3
I1
I0
tp11539
bS'R18'
p11540
tp11541
Rp11542
g11533
sg8
(g9
(S'S11'
p11543
I0
I1
tp11544
Rp11545
(I3
S'|'
p11546
NNNI11
I1
I0
tp11547
bS'635+L03+R20'
p11548
tp11549
Rp11550
g4075
ssg3203
(dp11551
g8
(g9
(S'S11'
p11552
I0
I1
tp11553
Rp11554
(I3
S'|'
p11555
NNNI11
I1
I0
tp11556
bS'232+423+R28'
p11557
tp11558
Rp11559
g10585
sg8
(g9
(S'S3'
p11560
I0
I1
tp11561
Rp11562
(I3
S'|'
p11563
NNNI3
I1
I0
tp11564
bS'419'
p11565
tp11566
Rp11567
g9139
ssg3212
(dp11568
g8
(g9
(S'S3'
p11569
I0
I1
tp11570
Rp11571
(I3
S'|'
p11572
NNNI3
I1
I0
tp11573
bS'302'
p11574
tp11575
Rp11576
(dp11577
ssg3221
(dp11578
g8
(g9
(S'S3'
p11579
I0
I1
tp11580
Rp11581
(I3
S'|'
p11582
NNNI3
I1
I0
tp11583
bS'301'
p11584
tp11585
Rp11586
g11577
sg8
(g9
(S'S3'
p11587
I0
I1
tp11588
Rp11589
(I3
S'|'
p11590
NNNI3
I1
I0
tp11591
bS'224'
p11592
tp11593
Rp11594
(dp11595
ssg3230
(dp11596
g8
(g9
(S'S3'
p11597
I0
I1
tp11598
Rp11599
(I3
S'|'
p11600
NNNI3
I1
I0
tp11601
bS'A33'
p11602
tp11603
Rp11604
g7771
sg8
(g9
(S'S3'
p11605
I0
I1
tp11606
Rp11607
(I3
S'|'
p11608
NNNI3
I1
I0
tp11609
bS'A34'
p11610
tp11611
Rp11612
g7826
sg8
(g9
(S'S7'
p11613
I0
I1
tp11614
Rp11615
(I3
S'|'
p11616
NNNI7
I1
I0
tp11617
bS'D17+R17'
p11618
tp11619
Rp11620
g4229
sg8
(g9
(S'S7'
p11621
I0
I1
tp11622
Rp11623
(I3
S'|'
p11624
NNNI7
I1
I0
tp11625
bS'A31+L01'
p11626
tp11627
Rp11628
g9593
sg8
(g9
(S'S7'
p11629
I0
I1
tp11630
Rp11631
(I3
S'|'
p11632
NNNI7
I1
I0
tp11633
bS'637+D21'
p11634
tp11635
Rp11636
g5089
sg8
(g9
(S'S11'
p11637
I0
I1
tp11638
Rp11639
(I3
S'|'
p11640
NNNI11
I1
I0
tp11641
bS'132+D19+L02'
p11642
tp11643
Rp11644
g7873
ssg3239
(dp11645
g8
(g9
(S'S11'
p11646
I0
I1
tp11647
Rp11648
(I3
S'|'
p11649
NNNI11
I1
I0
tp11650
bS'629+B08+R11'
p11651
tp11652
Rp11653
g3967
sg8
(g9
(S'S7'
p11654
I0
I1
tp11655
Rp11656
(I3
S'|'
p11657
NNNI7
I1
I0
tp11658
bS'718+R09'
p11659
tp11660
Rp11661
g4373
ssg3248
(dp11662
g8
(g9
(S'S3'
p11663
I0
I1
tp11664
Rp11665
(I3
S'|'
p11666
NNNI3
I1
I0
tp11667
bS'F12'
p11668
tp11669
Rp11670
g7478
sg8
(g9
(S'S11'
p11671
I0
I1
tp11672
Rp11673
(I3
S'|'
p11674
NNNI11
I1
I0
tp11675
bS'629+B08+R11'
p11676
tp11677
Rp11678
g3922
sg8
(g9
(S'S11'
p11679
I0
I1
tp11680
Rp11681
(I3
S'|'
p11682
NNNI11
I1
I0
tp11683
bS'719+F09+G22'
p11684
tp11685
Rp11686
g9293
sg8
(g9
(S'S11'
p11687
I0
I1
tp11688
Rp11689
(I3
S'|'
p11690
NNNI11
I1
I0
tp11691
bS'631+723+901'
p11692
tp11693
Rp11694
g10318
ssg3257
(dp11695
g8
(g9
(S'S7'
p11696
I0
I1
tp11697
Rp11698
(I3
S'|'
p11699
NNNI7
I1
I0
tp11700
bS'B16+N04'
p11701
tp11702
Rp11703
g10283
sg8
(g9
(S'S3'
p11704
I0
I1
tp11705
Rp11706
(I3
S'|'
p11707
NNNI3
I1
I0
tp11708
bS'B18'
p11709
tp11710
Rp11711
(dp11712
ssg3266
(dp11713
g8
(g9
(S'S3'
p11714
I0
I1
tp11715
Rp11716
(I3
S'|'
p11717
NNNI3
I1
I0
tp11718
bS'B15'
p11719
tp11720
Rp11721
(dp11722
sg8
(g9
(S'S3'
p11723
I0
I1
tp11724
Rp11725
(I3
S'|'
p11726
NNNI3
I1
I0
tp11727
bS'B13'
p11728
tp11729
Rp11730
(dp11731
ssg3275
(dp11732
g8
(g9
(S'S3'
p11733
I0
I1
tp11734
Rp11735
(I3
S'|'
p11736
NNNI3
I1
I0
tp11737
bS'B14'
p11738
tp11739
Rp11740
g11722
sg8
(g9
(S'S7'
p11741
I0
I1
tp11742
Rp11743
(I3
S'|'
p11744
NNNI7
I1
I0
tp11745
bS'B16+N04'
p11746
tp11747
Rp11748
g10292
ssg3284
(dp11749
g8
(g9
(S'S3'
p11750
I0
I1
tp11751
Rp11752
(I3
S'|'
p11753
NNNI3
I1
I0
tp11754
bS'R36'
p11755
tp11756
Rp11757
g6775
sg8
(g9
(S'S3'
p11758
I0
I1
tp11759
Rp11760
(I3
S'|'
p11761
NNNI3
I1
I0
tp11762
bS'B13'
p11763
tp11764
Rp11765
(dp11766
ssg3293
(dp11767
g8
(g9
(S'S3'
p11768
I0
I1
tp11769
Rp11770
(I3
S'|'
p11771
NNNI3
I1
I0
tp11772
bS'B14'
p11773
tp11774
Rp11775
g11731
sg8
(g9
(S'S3'
p11776
I0
I1
tp11777
Rp11778
(I3
S'|'
p11779
NNNI3
I1
I0
tp11780
bS'B12'
p11781
tp11782
Rp11783
g11766
ssg3302
(dp11784
g8
(g9
(S'S11'
p11785
I0
I1
tp11786
Rp11787
(I3
S'|'
p11788
NNNI11
I1
I0
tp11789
bS'629+B08+R11'
p11790
tp11791
Rp11792
g3976
sg8
(g9
(S'S3'
p11793
I0
I1
tp11794
Rp11795
(I3
S'|'
p11796
NNNI3
I1
I0
tp11797
bS'D15'
p11798
tp11799
Rp11800
g9690
ssg3311
(dp11801
g8
(g9
(S'S3'
p11802
I0
I1
tp11803
Rp11804
(I3
S'|'
p11805
NNNI3
I1
I0
tp11806
bS'B17'
p11807
tp11808
Rp11809
g11712
sg8
(g9
(S'S3'
p11810
I0
I1
tp11811
Rp11812
(I3
S'|'
p11813
NNNI3
I1
I0
tp11814
bS'B19'
p11815
tp11816
Rp11817
(dp11818
ssg3320
(dp11819
g8
(g9
(S'S3'
p11820
I0
I1
tp11821
Rp11822
(I3
S'|'
p11823
NNNI3
I1
I0
tp11824
bS'B18'
p11825
tp11826
Rp11827
g11818
sg8
(g9
(S'S3'
p11828
I0
I1
tp11829
Rp11830
(I3
S'|'
p11831
NNNI3
I1
I0
tp11832
bS'B20'
p11833
tp11834
Rp11835
g4338
ssg3329
(dp11836
g8
(g9
(S'S3'
p11837
I0
I1
tp11838
Rp11839
(I3
S'|'
p11840
NNNI3
I1
I0
tp11841
bS'L20'
p11842
tp11843
Rp11844
(dp11845
sg8
(g9
(S'S11'
p11846
I0
I1
tp11847
Rp11848
(I3
S'|'
p11849
NNNI11
I1
I0
tp11850
bS'A51+J27+L22'
p11851
tp11852
Rp11853
g8477
ssg3338
(dp11854
g8
(g9
(S'S3'
p11855
I0
I1
tp11856
Rp11857
(I3
S'|'
p11858
NNNI3
I1
I0
tp11859
bS'L21'
p11860
tp11861
Rp11862
g11845
sg8
(g9
(S'S3'
p11863
I0
I1
tp11864
Rp11865
(I3
S'|'
p11866
NNNI3
I1
I0
tp11867
bS'L19'
p11868
tp11869
Rp11870
g9149
ssg3347
(dp11871
g8
(g9
(S'S3'
p11872
I0
I1
tp11873
Rp11874
(I3
S'|'
p11875
NNNI3
I1
I0
tp11876
bS'L24'
p11877
tp11878
Rp11879
(dp11880
sg8
(g9
(S'S7'
p11881
I0
I1
tp11882
Rp11883
(I3
S'|'
p11884
NNNI7
I1
I0
tp11885
bS'254+L26'
p11886
tp11887
Rp11888
g5923
ssg3356
(dp11889
g8
(g9
(S'S3'
p11890
I0
I1
tp11891
Rp11892
(I3
S'|'
p11893
NNNI3
I1
I0
tp11894
bS'L25'
p11895
tp11896
Rp11897
g11880
sg8
(g9
(S'S11'
p11898
I0
I1
tp11899
Rp11900
(I3
S'|'
p11901
NNNI11
I1
I0
tp11902
bS'A51+J27+L22'
p11903
tp11904
Rp11905
g8510
ssg3365
(dp11906
g8
(g9
(S'S3'
p11907
I0
I1
tp11908
Rp11909
(I3
S'|'
p11910
NNNI3
I1
I0
tp11911
bS'L28'
p11912
tp11913
Rp11914
(dp11915
sg8
(g9
(S'S7'
p11916
I0
I1
tp11917
Rp11918
(I3
S'|'
p11919
NNNI7
I1
I0
tp11920
bS'254+L26'
p11921
tp11922
Rp11923
g5932
ssg3374
(dp11924
g8
(g9
(S'S3'
p11925
I0
I1
tp11926
Rp11927
(I3
S'|'
p11928
NNNI3
I1
I0
tp11929
bS'J17'
p11930
tp11931
Rp11932
g7863
sg8
(g9
(S'S3'
p11933
I0
I1
tp11934
Rp11935
(I3
S'|'
p11936
NNNI3
I1
I0
tp11937
bS'J20'
p11938
tp11939
Rp11940
g4473
ssg3383
(dp11941
g8
(g9
(S'S3'
p11942
I0
I1
tp11943
Rp11944
(I3
S'|'
p11945
NNNI3
I1
I0
tp11946
bS'L28'
p11947
tp11948
Rp11949
(dp11950
ssg3392
(dp11951
g8
(g9
(S'S3'
p11952
I0
I1
tp11953
Rp11954
(I3
S'|'
p11955
NNNI3
I1
I0
tp11956
bS'L29'
p11957
tp11958
Rp11959
g11950
sg8
(g9
(S'S3'
p11960
I0
I1
tp11961
Rp11962
(I3
S'|'
p11963
NNNI3
I1
I0
tp11964
bS'L27'
p11965
tp11966
Rp11967
g11915
ssg3401
(dp11968
g8
(g9
(S'S3'
p11969
I0
I1
tp11970
Rp11971
(I3
S'|'
p11972
NNNI3
I1
I0
tp11973
bS'J15'
p11974
tp11975
Rp11976
(dp11977
sg8
(g9
(S'S3'
p11978
I0
I1
tp11979
Rp11980
(I3
S'|'
p11981
NNNI3
I1
I0
tp11982
bS'J13'
p11983
tp11984
Rp11985
(dp11986
ssg3410
(dp11987
g8
(g9
(S'S3'
p11988
I0
I1
tp11989
Rp11990
(I3
S'|'
p11991
NNNI3
I1
I0
tp11992
bS'J16'
p11993
tp11994
Rp11995
g7845
sg8
(g9
(S'S3'
p11996
I0
I1
tp11997
Rp11998
(I3
S'|'
p11999
NNNI3
I1
I0
tp12000
bS'J14'
p12001
tp12002
Rp12003
g11977
ssg3419
(dp12004
g8
(g9
(S'S3'
p12005
I0
I1
tp12006
Rp12007
(I3
S'|'
p12008
NNNI3
I1
I0
tp12009
bS'G06'
p12010
tp12011
Rp12012
g8298
sg8
(g9
(S'S3'
p12013
I0
I1
tp12014
Rp12015
(I3
S'|'
p12016
NNNI3
I1
I0
tp12017
bS'J13'
p12018
tp12019
Rp12020
(dp12021
ssg3428
(dp12022
g8
(g9
(S'S3'
p12023
I0
I1
tp12024
Rp12025
(I3
S'|'
p12026
NNNI3
I1
I0
tp12027
bS'J14'
p12028
tp12029
Rp12030
g11986
sg8
(g9
(S'S3'
p12031
I0
I1
tp12032
Rp12033
(I3
S'|'
p12034
NNNI3
I1
I0
tp12035
bS'J12'
p12036
tp12037
Rp12038
g12021
ssg3437
(dp12039
g8
(g9
(S'S3'
p12040
I0
I1
tp12041
Rp12042
(I3
S'|'
p12043
NNNI3
I1
I0
tp12044
bS'D28'
p12045
tp12046
Rp12047
(dp12048
sg8
(g9
(S'S3'
p12049
I0
I1
tp12050
Rp12051
(I3
S'|'
p12052
NNNI3
I1
I0
tp12053
bS'D30'
p12054
tp12055
Rp12056
g5723
ssg3446
(dp12057
g8
(g9
(S'S3'
p12058
I0
I1
tp12059
Rp12060
(I3
S'|'
p12061
NNNI3
I1
I0
tp12062
bS'D29'
p12063
tp12064
Rp12065
g12048
sg8
(g9
(S'S3'
p12066
I0
I1
tp12067
Rp12068
(I3
S'|'
p12069
NNNI3
I1
I0
tp12070
bS'D26'
p12071
tp12072
Rp12073
(dp12074
sg8
(g9
(S'S3'
p12075
I0
I1
tp12076
Rp12077
(I3
S'|'
p12078
NNNI3
I1
I0
tp12079
bS'D27'
p12080
tp12081
Rp12082
(dp12083
sg8
(g9
(S'S3'
p12084
I0
I1
tp12085
Rp12086
(I3
S'|'
p12087
NNNI3
I1
I0
tp12088
bS'D31'
p12089
tp12090
Rp12091
g5742
ssg3455
(dp12092
g8
(g9
(S'S11'
p12093
I0
I1
tp12094
Rp12095
(I3
S'|'
p12096
NNNI11
I1
I0
tp12097
bS'235+D24+R31'
p12098
tp12099
Rp12100
g9383
sg8
(g9
(S'S3'
p12101
I0
I1
tp12102
Rp12103
(I3
S'|'
p12104
NNNI3
I1
I0
tp12105
bS'R30'
p12106
tp12107
Rp12108
g6810
sg8
(g9
(S'S7'
p12109
I0
I1
tp12110
Rp12111
(I3
S'|'
p12112
NNNI7
I1
I0
tp12113
bS'637+D21'
p12114
tp12115
Rp12116
g5116
ssg3464
(dp12117
g8
(g9
(S'S11'
p12118
I0
I1
tp12119
Rp12120
(I3
S'|'
p12121
NNNI11
I1
I0
tp12122
bS'235+D24+R31'
p12123
tp12124
Rp12125
g9409
sg8
(g9
(S'S3'
p12126
I0
I1
tp12127
Rp12128
(I3
S'|'
p12129
NNNI3
I1
I0
tp12130
bS'D26'
p12131
tp12132
Rp12133
(dp12134
ssg3473
(dp12135
g8
(g9
(S'S3'
p12136
I0
I1
tp12137
Rp12138
(I3
S'|'
p12139
NNNI3
I1
I0
tp12140
bS'D28'
p12141
tp12142
Rp12143
g12083
sg8
(g9
(S'S3'
p12144
I0
I1
tp12145
Rp12146
(I3
S'|'
p12147
NNNI3
I1
I0
tp12148
bS'D26'
p12149
tp12150
Rp12151
(dp12152
ssg3482
(dp12153
g8
(g9
(S'S3'
p12154
I0
I1
tp12155
Rp12156
(I3
S'|'
p12157
NNNI3
I1
I0
tp12158
bS'D28'
p12159
tp12160
Rp12161
g12074
sg8
(g9
(S'S7'
p12162
I0
I1
tp12163
Rp12164
(I3
S'|'
p12165
NNNI7
I1
I0
tp12166
bS'239+S04'
p12167
tp12168
Rp12169
(dp12170
sg8
(g9
(S'S3'
p12171
I0
I1
tp12172
Rp12173
(I3
S'|'
p12174
NNNI3
I1
I0
tp12175
bS'D25'
p12176
tp12177
Rp12178
g12134
sg8
(g9
(S'S3'
p12179
I0
I1
tp12180
Rp12181
(I3
S'|'
p12182
NNNI3
I1
I0
tp12183
bS'D27'
p12184
tp12185
Rp12186
g12152
ssg3491
(dp12187
g8
(g9
(S'S3'
p12188
I0
I1
tp12189
Rp12190
(I3
S'|'
p12191
NNNI3
I1
I0
tp12192
bS'120'
p12193
tp12194
Rp12195
g8756
sg8
(g9
(S'S3'
p12196
I0
I1
tp12197
Rp12198
(I3
S'|'
p12199
NNNI3
I1
I0
tp12200
bS'226'
p12201
tp12202
Rp12203
(dp12204
ssg3500
(dp12205
g8
(g9
(S'S3'
p12206
I0
I1
tp12207
Rp12208
(I3
S'|'
p12209
NNNI3
I1
I0
tp12210
bS'227'
p12211
tp12212
Rp12213
g12204
sg8
(g9
(S'S3'
p12214
I0
I1
tp12215
Rp12216
(I3
S'|'
p12217
NNNI3
I1
I0
tp12218
bS'225'
p12219
tp12220
Rp12221
(dp12222
ssg3509
(dp12223
g8
(g9
(S'S3'
p12224
I0
I1
tp12225
Rp12226
(I3
S'|'
p12227
NNNI3
I1
I0
tp12228
bS'226'
p12229
tp12230
Rp12231
g12222
sg8
(g9
(S'S3'
p12232
I0
I1
tp12233
Rp12234
(I3
S'|'
p12235
NNNI3
I1
I0
tp12236
bS'224'
p12237
tp12238
Rp12239
(dp12240
ssg3518
(dp12241
g8
(g9
(S'S3'
p12242
I0
I1
tp12243
Rp12244
(I3
S'|'
p12245
NNNI3
I1
I0
tp12246
bS'225'
p12247
tp12248
Rp12249
g12240
sg8
(g9
(S'S3'
p12250
I0
I1
tp12251
Rp12252
(I3
S'|'
p12253
NNNI3
I1
I0
tp12254
bS'302'
p12255
tp12256
Rp12257
g11595
sg8
(g9
(S'S7'
p12258
I0
I1
tp12259
Rp12260
(I3
S'|'
p12261
NNNI7
I1
I0
tp12262
bS'222+415'
p12263
tp12264
Rp12265
g11111
ssg3527
(dp12266
g8
(g9
(S'S7'
p12267
I0
I1
tp12268
Rp12269
(I3
S'|'
p12270
NNNI7
I1
I0
tp12271
bS'222+415'
p12272
tp12273
Rp12274
g11128
sg8
(g9
(S'S3'
p12275
I0
I1
tp12276
Rp12277
(I3
S'|'
p12278
NNNI3
I1
I0
tp12279
bS'220'
p12280
tp12281
Rp12282
(dp12283
ssg3536
(dp12284
g8
(g9
(S'S3'
p12285
I0
I1
tp12286
Rp12287
(I3
S'|'
p12288
NNNI3
I1
I0
tp12289
bS'221'
p12290
tp12291
Rp12292
g12283
sg8
(g9
(S'S3'
p12293
I0
I1
tp12294
Rp12295
(I3
S'|'
p12296
NNNI3
I1
I0
tp12297
bS'219'
p12298
tp12299
Rp12300
g10798
ssg3545
(dp12301
g8
(g9
(S'S7'
p12302
I0
I1
tp12303
Rp12304
(I3
S'|'
p12305
NNNI7
I1
I0
tp12306
bS'239+S04'
p12307
tp12308
Rp12309
(dp12310
sg8
(g9
(S'S7'
p12311
I0
I1
tp12312
Rp12313
(I3
S'|'
p12314
NNNI7
I1
I0
tp12315
bS'A45+S01'
p12316
tp12317
Rp12318
g9775
ssg3554
(dp12319
g8
(g9
(S'S11'
p12320
I0
I1
tp12321
Rp12322
(I3
S'|'
p12323
NNNI11
I1
I0
tp12324
bS'719+F09+G22'
p12325
tp12326
Rp12327
g9302
sg8
(g9
(S'S3'
p12328
I0
I1
tp12329
Rp12330
(I3
S'|'
p12331
NNNI3
I1
I0
tp12332
bS'721'
p12333
tp12334
Rp12335
(dp12336
ssg3563
(dp12337
g8
(g9
(S'S3'
p12338
I0
I1
tp12339
Rp12340
(I3
S'|'
p12341
NNNI3
I1
I0
tp12342
bS'720'
p12343
tp12344
Rp12345
g12336
sg8
(g9
(S'S11'
p12346
I0
I1
tp12347
Rp12348
(I3
S'|'
p12349
NNNI11
I1
I0
tp12350
bS'631+723+901'
p12351
tp12352
Rp12353
g10351
ssg3572
(dp12354
g8
(g9
(S'S3'
p12355
I0
I1
tp12356
Rp12357
(I3
S'|'
p12358
NNNI3
I1
I0
tp12359
bS'606'
p12360
tp12361
Rp12362
(dp12363
sg8
(g9
(S'S3'
p12364
I0
I1
tp12365
Rp12366
(I3
S'|'
p12367
NNNI3
I1
I0
tp12368
bS'603'
p12369
tp12370
Rp12371
(dp12372
ssg3581
(dp12373
g8
(g9
(S'S3'
p12374
I0
I1
tp12375
Rp12376
(I3
S'|'
p12377
NNNI3
I1
I0
tp12378
bS'606'
p12379
tp12380
Rp12381
(dp12382
sg8
(g9
(S'S3'
p12383
I0
I1
tp12384
Rp12385
(I3
S'|'
p12386
NNNI3
I1
I0
tp12387
bS'608'
p12388
tp12389
Rp12390
(dp12391
ssg3590
(dp12392
g8
(g9
(S'S3'
p12393
I0
I1
tp12394
Rp12395
(I3
S'|'
p12396
NNNI3
I1
I0
tp12397
bS'604'
p12398
tp12399
Rp12400
g12363
sg8
(g9
(S'S3'
p12401
I0
I1
tp12402
Rp12403
(I3
S'|'
p12404
NNNI3
I1
I0
tp12405
bS'607'
p12406
tp12407
Rp12408
g12382
ssg3599
(dp12409
g8
(g9
(S'S3'
p12410
I0
I1
tp12411
Rp12412
(I3
S'|'
p12413
NNNI3
I1
I0
tp12414
bS'602'
p12415
tp12416
Rp12417
(dp12418
ssg3608
(dp12419
g8
(g9
(S'S3'
p12420
I0
I1
tp12421
Rp12422
(I3
S'|'
p12423
NNNI3
I1
I0
tp12424
bS'604'
p12425
tp12426
Rp12427
g12372
sg8
(g9
(S'S3'
p12428
I0
I1
tp12429
Rp12430
(I3
S'|'
p12431
NNNI3
I1
I0
tp12432
bS'602'
p12433
tp12434
Rp12435
(dp12436
ssg3617
(dp12437
g8
(g9
(S'S3'
p12438
I0
I1
tp12439
Rp12440
(I3
S'|'
p12441
NNNI3
I1
I0
tp12442
bS'601'
p12443
tp12444
Rp12445
g12418
sg8
(g9
(S'S3'
p12446
I0
I1
tp12447
Rp12448
(I3
S'|'
p12449
NNNI3
I1
I0
tp12450
bS'603'
p12451
tp12452
Rp12453
g12436
ssg3626
(dp12454
g8
(g9
(S'S3'
p12455
I0
I1
tp12456
Rp12457
(I3
S'|'
p12458
NNNI3
I1
I0
tp12459
bS'610'
p12460
tp12461
Rp12462
g6070
sg8
(g9
(S'S3'
p12463
I0
I1
tp12464
Rp12465
(I3
S'|'
p12466
NNNI3
I1
I0
tp12467
bS'608'
p12468
tp12469
Rp12470
(dp12471
ssg3635
(dp12472
g8
(g9
(S'S3'
p12473
I0
I1
tp12474
Rp12475
(I3
S'|'
p12476
NNNI3
I1
I0
tp12477
bS'613'
p12478
tp12479
Rp12480
g6042
sg8
(g9
(S'S3'
p12481
I0
I1
tp12482
Rp12483
(I3
S'|'
p12484
NNNI3
I1
I0
tp12485
bS'607'
p12486
tp12487
Rp12488
g12391
sg8
(g9
(S'S3'
p12489
I0
I1
tp12490
Rp12491
(I3
S'|'
p12492
NNNI3
I1
I0
tp12493
bS'609'
p12494
tp12495
Rp12496
g12471
ssg3644
(dp12497
g8
(g9
(S'S3'
p12498
I0
I1
tp12499
Rp12500
(I3
S'|'
p12501
NNNI3
I1
I0
tp12502
bS'M06'
p12503
tp12504
Rp12505
g10369
sg8
(g9
(S'S3'
p12506
I0
I1
tp12507
Rp12508
(I3
S'|'
p12509
NNNI3
I1
I0
tp12510
bS'L16'
p12511
tp12512
Rp12513
g9213
sg8
(g9
(S'S3'
p12514
I0
I1
tp12515
Rp12516
(I3
S'|'
p12517
NNNI3
I1
I0
tp12518
bS'L19'
p12519
tp12520
Rp12521
g9158
sg8
(g9
(S'S3'
p12522
I0
I1
tp12523
Rp12524
(I3
S'|'
p12525
NNNI3
I1
I0
tp12526
bS'M09'
p12527
tp12528
Rp12529
g10441
ssg3653
(dp12530
g8
(g9
(S'S3'
p12531
I0
I1
tp12532
Rp12533
(I3
S'|'
p12534
NNNI3
I1
I0
tp12535
bS'A14'
p12536
tp12537
Rp12538
(dp12539
sg8
(g9
(S'S7'
p12540
I0
I1
tp12541
Rp12542
(I3
S'|'
p12543
NNNI7
I1
I0
tp12544
bS'A12+D13'
p12545
tp12546
Rp12547
g4776
sg8
(g9
(S'S3'
p12548
I0
I1
tp12549
Rp12550
(I3
S'|'
p12551
NNNI3
I1
I0
tp12552
bS'A16'
p12553
tp12554
Rp12555
(dp12556
sg8
(g9
(S'S7'
p12557
I0
I1
tp12558
Rp12559
(I3
S'|'
p12560
NNNI7
I1
I0
tp12561
bS'125+A24'
p12562
tp12563
Rp12564
g7091
ssg3662
(dp12565
g8
(g9
(S'S3'
p12566
I0
I1
tp12567
Rp12568
(I3
S'|'
p12569
NNNI3
I1
I0
tp12570
bS'A15'
p12571
tp12572
Rp12573
g12539
sg8
(g9
(S'S7'
p12574
I0
I1
tp12575
Rp12576
(I3
S'|'
p12577
NNNI7
I1
I0
tp12578
bS'A12+D13'
p12579
tp12580
Rp12581
g4785
ssg3671
(dp12582
g8
(g9
(S'S3'
p12583
I0
I1
tp12584
Rp12585
(I3
S'|'
p12586
NNNI3
I1
I0
tp12587
bS'A16'
p12588
tp12589
Rp12590
(dp12591
sg8
(g9
(S'S3'
p12592
I0
I1
tp12593
Rp12594
(I3
S'|'
p12595
NNNI3
I1
I0
tp12596
bS'A18'
p12597
tp12598
Rp12599
(dp12600
ssg3680
(dp12601
g8
(g9
(S'S3'
p12602
I0
I1
tp12603
Rp12604
(I3
S'|'
p12605
NNNI3
I1
I0
tp12606
bS'A15'
p12607
tp12608
Rp12609
g12556
sg8
(g9
(S'S3'
p12610
I0
I1
tp12611
Rp12612
(I3
S'|'
p12613
NNNI3
I1
I0
tp12614
bS'A17'
p12615
tp12616
Rp12617
g12591
ssg3689
(dp12618
g8
(g9
(S'S7'
p12619
I0
I1
tp12620
Rp12621
(I3
S'|'
p12622
NNNI7
I1
I0
tp12623
bS'A12+D13'
p12624
tp12625
Rp12626
g4803
sg8
(g9
(S'S3'
p12627
I0
I1
tp12628
Rp12629
(I3
S'|'
p12630
NNNI3
I1
I0
tp12631
bS'A10'
p12632
tp12633
Rp12634
(dp12635
ssg3698
(dp12636
g8
(g9
(S'S7'
p12637
I0
I1
tp12638
Rp12639
(I3
S'|'
p12640
NNNI7
I1
I0
tp12641
bS'112+A09'
p12642
tp12643
Rp12644
g10842
sg8
(g9
(S'S3'
p12645
I0
I1
tp12646
Rp12647
(I3
S'|'
p12648
NNNI3
I1
I0
tp12649
bS'A11'
p12650
tp12651
Rp12652
g12635
ssg3707
(dp12653
g8
(g9
(S'S3'
p12654
I0
I1
tp12655
Rp12656
(I3
S'|'
p12657
NNNI3
I1
I0
tp12658
bS'A20'
p12659
tp12660
Rp12661
g10163
sg8
(g9
(S'S3'
p12662
I0
I1
tp12663
Rp12664
(I3
S'|'
p12665
NNNI3
I1
I0
tp12666
bS'A18'
p12667
tp12668
Rp12669
(dp12670
ssg3716
(dp12671
g8
(g9
(S'S3'
p12672
I0
I1
tp12673
Rp12674
(I3
S'|'
p12675
NNNI3
I1
I0
tp12676
bS'A17'
p12677
tp12678
Rp12679
g12600
sg8
(g9
(S'S3'
p12680
I0
I1
tp12681
Rp12682
(I3
S'|'
p12683
NNNI3
I1
I0
tp12684
bS'A19'
p12685
tp12686
Rp12687
g12670
ssg3725
(dp12688
g8
(g9
(S'S3'
p12689
I0
I1
tp12690
Rp12691
(I3
S'|'
p12692
NNNI3
I1
I0
tp12693
bS'R26'
p12694
tp12695
Rp12696
(dp12697
ssg3734
(dp12698
g8
(g9
(S'S11'
p12699
I0
I1
tp12700
Rp12701
(I3
S'|'
p12702
NNNI11
I1
I0
tp12703
bS'235+D24+R31'
p12704
tp12705
Rp12706
g9400
sg8
(g9
(S'S3'
p12707
I0
I1
tp12708
Rp12709
(I3
S'|'
p12710
NNNI3
I1
I0
tp12711
bS'S03'
p12712
tp12713
Rp12714
g12310
sg8
(g9
(S'S3'
p12715
I0
I1
tp12716
Rp12717
(I3
S'|'
p12718
NNNI3
I1
I0
tp12719
bS'D26'
p12720
tp12721
Rp12722
g12170
sg8
(g9
(S'S3'
p12723
I0
I1
tp12724
Rp12725
(I3
S'|'
p12726
NNNI3
I1
I0
tp12727
bS'238'
p12728
tp12729
Rp12730
g5776
sg8
(g9
(S'S3'
p12731
I0
I1
tp12732
Rp12733
(I3
S'|'
p12734
NNNI3
I1
I0
tp12735
bS'241'
p12736
tp12737
Rp12738
g7389
sg8
(g9
(S'S3'
p12739
I0
I1
tp12740
Rp12741
(I3
S'|'
p12742
NNNI3
I1
I0
tp12743
bS'250'
p12744
tp12745
Rp12746
g9830
sg8
(g9
(S'S3'
p12747
I0
I1
tp12748
Rp12749
(I3
S'|'
p12750
NNNI3
I1
I0
tp12751
bS'248'
p12752
tp12753
Rp12754
g7506
ssg3743
(dp12755
g8
(g9
(S'S11'
p12756
I0
I1
tp12757
Rp12758
(I3
S'|'
p12759
NNNI11
I1
I0
tp12760
bS'232+423+R28'
p12761
tp12762
Rp12763
g10602
sg8
(g9
(S'S3'
p12764
I0
I1
tp12765
Rp12766
(I3
S'|'
p12767
NNNI3
I1
I0
tp12768
bS'R30'
p12769
tp12770
Rp12771
g6828
ssg3752
(dp12772
g8
(g9
(S'S3'
p12773
I0
I1
tp12774
Rp12775
(I3
S'|'
p12776
NNNI3
I1
I0
tp12777
bS'F16'
p12778
tp12779
Rp12780
g7488
sg8
(g9
(S'S3'
p12781
I0
I1
tp12782
Rp12783
(I3
S'|'
p12784
NNNI3
I1
I0
tp12785
bS'A41'
p12786
tp12787
Rp12788
g5353
ssg3761
(dp12789
g8
(g9
(S'S3'
p12790
I0
I1
tp12791
Rp12792
(I3
S'|'
p12793
NNNI3
I1
I0
tp12794
bS'R27'
p12795
tp12796
Rp12797
g12697
sg8
(g9
(S'S3'
p12798
I0
I1
tp12799
Rp12800
(I3
S'|'
p12801
NNNI3
I1
I0
tp12802
bS'R25'
p12803
tp12804
Rp12805
(dp12806
ssg3770
(dp12807
g8
(g9
(S'S3'
p12808
I0
I1
tp12809
Rp12810
(I3
S'|'
p12811
NNNI3
I1
I0
tp12812
bS'R26'
p12813
tp12814
Rp12815
g12806
sg8
(g9
(S'S3'
p12816
I0
I1
tp12817
Rp12818
(I3
S'|'
p12819
NNNI3
I1
I0
tp12820
bS'R24'
p12821
tp12822
Rp12823
(dp12824
ssg3779
(dp12825
g8
(g9
(S'S3'
p12826
I0
I1
tp12827
Rp12828
(I3
S'|'
p12829
NNNI3
I1
I0
tp12830
bS'R25'
p12831
tp12832
Rp12833
g12824
sg8
(g9
(S'S15'
p12834
I0
I1
tp12835
Rp12836
(I3
S'|'
p12837
NNNI15
I1
I0
tp12838
bS'639+M20+Q01+R23'
p12839
tp12840
Rp12841
g8578
ssg3788
(dp12842
g8
(g9
(S'S15'
p12843
I0
I1
tp12844
Rp12845
(I3
S'|'
p12846
NNNI15
I1
I0
tp12847
bS'639+M20+Q01+R23'
p12848
tp12849
Rp12850
g8595
sg8
(g9
(S'S3'
p12851
I0
I1
tp12852
Rp12853
(I3
S'|'
p12854
NNNI3
I1
I0
tp12855
bS'R21'
p12856
tp12857
Rp12858
(dp12859
ssg3797
(dp12860
g8
(g9
(S'S3'
p12861
I0
I1
tp12862
Rp12863
(I3
S'|'
p12864
NNNI3
I1
I0
tp12865
bS'R22'
p12866
tp12867
Rp12868
g12859
sg8
(g9
(S'S11'
p12869
I0
I1
tp12870
Rp12871
(I3
S'|'
p12872
NNNI11
I1
I0
tp12873
bS'635+L03+R20'
p12874
tp12875
Rp12876
g4093
sssS'adj'
p12877
g3802
sb.